ARM GAS  C:\Users\cy023\AppData\Local\Temp\ccSmPHAE.s 			page 1


   1              		.cpu cortex-m4
   2              		.eabi_attribute 20, 1
   3              		.eabi_attribute 21, 1
   4              		.eabi_attribute 23, 3
   5              		.eabi_attribute 24, 1
   6              		.eabi_attribute 25, 1
   7              		.eabi_attribute 26, 1
   8              		.eabi_attribute 30, 6
   9              		.eabi_attribute 34, 1
  10              		.eabi_attribute 18, 4
  11              		.file	"delay.c"
  12              		.text
  13              	.Ltext0:
  14              		.cfi_sections	.debug_frame
  15              		.section	.text.delay_ms,"ax",%progbits
  16              		.align	1
  17              		.global	delay_ms
  18              		.arch armv7e-m
  19              		.syntax unified
  20              		.thumb
  21              		.thumb_func
  22              		.fpu softvfp
  24              	delay_ms:
  25              	.LFB0:
  26              		.file 1 "Drivers/HAL/delay.c"
   1:Drivers/HAL/delay.c **** /**
   2:Drivers/HAL/delay.c ****  * @file delay.c
   3:Drivers/HAL/delay.c ****  * @author cy023
   4:Drivers/HAL/delay.c ****  * @brief Provide delay functions
   5:Drivers/HAL/delay.c ****  * @date 2022.08.17
   6:Drivers/HAL/delay.c ****  * 
   7:Drivers/HAL/delay.c ****  */
   8:Drivers/HAL/delay.c **** 
   9:Drivers/HAL/delay.c **** #include "delay.h"
  10:Drivers/HAL/delay.c **** #include "systick.h"
  11:Drivers/HAL/delay.c **** 
  12:Drivers/HAL/delay.c **** void delay_ms(uint16_t ms)
  13:Drivers/HAL/delay.c **** {
  27              		.loc 1 13 1
  28              		.cfi_startproc
  29              		@ args = 0, pretend = 0, frame = 16
  30              		@ frame_needed = 1, uses_anonymous_args = 0
  31 0000 80B5     		push	{r7, lr}
  32              	.LCFI0:
  33              		.cfi_def_cfa_offset 8
  34              		.cfi_offset 7, -8
  35              		.cfi_offset 14, -4
  36 0002 84B0     		sub	sp, sp, #16
  37              	.LCFI1:
  38              		.cfi_def_cfa_offset 24
  39 0004 00AF     		add	r7, sp, #0
  40              	.LCFI2:
  41              		.cfi_def_cfa_register 7
  42 0006 0346     		mov	r3, r0
  43 0008 FB80     		strh	r3, [r7, #6]	@ movhi
  14:Drivers/HAL/delay.c ****     volatile uint32_t t = sys_now();
  44              		.loc 1 14 27
ARM GAS  C:\Users\cy023\AppData\Local\Temp\ccSmPHAE.s 			page 2


  45 000a FFF7FEFF 		bl	sys_now
  46 000e 0346     		mov	r3, r0
  47              		.loc 1 14 23
  48 0010 FB60     		str	r3, [r7, #12]
  49              	.L4:
  15:Drivers/HAL/delay.c ****     while (1) {
  16:Drivers/HAL/delay.c ****         if (sys_now() - t > ms * 10)
  50              		.loc 1 16 13
  51 0012 FFF7FEFF 		bl	sys_now
  52 0016 0246     		mov	r2, r0
  53              		.loc 1 16 23
  54 0018 FB68     		ldr	r3, [r7, #12]
  55 001a D11A     		subs	r1, r2, r3
  56              		.loc 1 16 32
  57 001c FA88     		ldrh	r2, [r7, #6]
  58 001e 1346     		mov	r3, r2
  59 0020 9B00     		lsls	r3, r3, #2
  60 0022 1344     		add	r3, r3, r2
  61 0024 5B00     		lsls	r3, r3, #1
  62              		.loc 1 16 12
  63 0026 9942     		cmp	r1, r3
  64 0028 00D8     		bhi	.L6
  65 002a F2E7     		b	.L4
  66              	.L6:
  17:Drivers/HAL/delay.c ****             break;
  67              		.loc 1 17 13
  68 002c 00BF     		nop
  18:Drivers/HAL/delay.c ****     }
  19:Drivers/HAL/delay.c **** }
  69              		.loc 1 19 1
  70 002e 00BF     		nop
  71 0030 1037     		adds	r7, r7, #16
  72              	.LCFI3:
  73              		.cfi_def_cfa_offset 8
  74 0032 BD46     		mov	sp, r7
  75              	.LCFI4:
  76              		.cfi_def_cfa_register 13
  77              		@ sp needed
  78 0034 80BD     		pop	{r7, pc}
  79              		.cfi_endproc
  80              	.LFE0:
  82              		.text
  83              	.Letext0:
  84              		.file 2 "d:\\program files\\gnu arm embedded toolchain\\10 2020-q4-major\\arm-none-eabi\\include\\
  85              		.file 3 "d:\\program files\\gnu arm embedded toolchain\\10 2020-q4-major\\arm-none-eabi\\include\\
ARM GAS  C:\Users\cy023\AppData\Local\Temp\ccSmPHAE.s 			page 3


DEFINED SYMBOLS
                            *ABS*:00000000 delay.c
C:\Users\cy023\AppData\Local\Temp\ccSmPHAE.s:16     .text.delay_ms:00000000 $t
C:\Users\cy023\AppData\Local\Temp\ccSmPHAE.s:24     .text.delay_ms:00000000 delay_ms

UNDEFINED SYMBOLS
sys_now
