ARM GAS  C:\Users\cy023\AppData\Local\Temp\ccyGZuft.s 			page 1


   1              		.cpu cortex-m4
   2              		.eabi_attribute 20, 1
   3              		.eabi_attribute 21, 1
   4              		.eabi_attribute 23, 3
   5              		.eabi_attribute 24, 1
   6              		.eabi_attribute 25, 1
   7              		.eabi_attribute 26, 1
   8              		.eabi_attribute 30, 6
   9              		.eabi_attribute 34, 1
  10              		.eabi_attribute 18, 4
  11              		.file	"startup_same54p20a.c"
  12              		.text
  13              	.Ltext0:
  14              		.cfi_sections	.debug_frame
  15              		.global	exception_table
  16              		.section	.vectors,"a"
  17              		.align	2
  20              	exception_table:
  21 0000 00000000 		.word	_estack
  22 0004 00000000 		.word	Reset_Handler
  23 0008 00000000 		.word	NonMaskableInt_Handler
  24 000c 00000000 		.word	HardFault_Handler
  25 0010 00000000 		.word	MemoryManagement_Handler
  26 0014 00000000 		.word	BusFault_Handler
  27 0018 00000000 		.word	UsageFault_Handler
  28 001c 00000000 		.word	0
  29 0020 00000000 		.word	0
  30 0024 00000000 		.word	0
  31 0028 00000000 		.word	0
  32 002c 00000000 		.word	SVCall_Handler
  33 0030 00000000 		.word	DebugMonitor_Handler
  34 0034 00000000 		.word	0
  35 0038 00000000 		.word	PendSV_Handler
  36 003c 00000000 		.word	SysTick_Handler
  37 0040 00000000 		.word	PM_Handler
  38 0044 00000000 		.word	MCLK_Handler
  39 0048 00000000 		.word	OSCCTRL_XOSC0_Handler
  40 004c 00000000 		.word	OSCCTRL_XOSC1_Handler
  41 0050 00000000 		.word	OSCCTRL_DFLL_Handler
  42 0054 00000000 		.word	OSCCTRL_DPLL0_Handler
  43 0058 00000000 		.word	OSCCTRL_DPLL1_Handler
  44 005c 00000000 		.word	OSC32KCTRL_Handler
  45 0060 00000000 		.word	SUPC_OTHER_Handler
  46 0064 00000000 		.word	SUPC_BODDET_Handler
  47 0068 00000000 		.word	WDT_Handler
  48 006c 00000000 		.word	RTC_Handler
  49 0070 00000000 		.word	EIC_EXTINT_0_Handler
  50 0074 00000000 		.word	EIC_EXTINT_1_Handler
  51 0078 00000000 		.word	EIC_EXTINT_2_Handler
  52 007c 00000000 		.word	EIC_EXTINT_3_Handler
  53 0080 00000000 		.word	EIC_EXTINT_4_Handler
  54 0084 00000000 		.word	EIC_EXTINT_5_Handler
  55 0088 00000000 		.word	EIC_EXTINT_6_Handler
  56 008c 00000000 		.word	EIC_EXTINT_7_Handler
  57 0090 00000000 		.word	EIC_EXTINT_8_Handler
  58 0094 00000000 		.word	EIC_EXTINT_9_Handler
  59 0098 00000000 		.word	EIC_EXTINT_10_Handler
ARM GAS  C:\Users\cy023\AppData\Local\Temp\ccyGZuft.s 			page 2


  60 009c 00000000 		.word	EIC_EXTINT_11_Handler
  61 00a0 00000000 		.word	EIC_EXTINT_12_Handler
  62 00a4 00000000 		.word	EIC_EXTINT_13_Handler
  63 00a8 00000000 		.word	EIC_EXTINT_14_Handler
  64 00ac 00000000 		.word	EIC_EXTINT_15_Handler
  65 00b0 00000000 		.word	FREQM_Handler
  66 00b4 00000000 		.word	NVMCTRL_0_Handler
  67 00b8 00000000 		.word	NVMCTRL_1_Handler
  68 00bc 00000000 		.word	DMAC_0_Handler
  69 00c0 00000000 		.word	DMAC_1_Handler
  70 00c4 00000000 		.word	DMAC_2_Handler
  71 00c8 00000000 		.word	DMAC_3_Handler
  72 00cc 00000000 		.word	DMAC_OTHER_Handler
  73 00d0 00000000 		.word	EVSYS_0_Handler
  74 00d4 00000000 		.word	EVSYS_1_Handler
  75 00d8 00000000 		.word	EVSYS_2_Handler
  76 00dc 00000000 		.word	EVSYS_3_Handler
  77 00e0 00000000 		.word	EVSYS_OTHER_Handler
  78 00e4 00000000 		.word	PAC_Handler
  79 00e8 00000000 		.word	0
  80 00ec 00000000 		.word	0
  81 00f0 00000000 		.word	0
  82 00f4 00000000 		.word	RAMECC_Handler
  83 00f8 00000000 		.word	SERCOM0_0_Handler
  84 00fc 00000000 		.word	SERCOM0_1_Handler
  85 0100 00000000 		.word	SERCOM0_2_Handler
  86 0104 00000000 		.word	SERCOM0_OTHER_Handler
  87 0108 00000000 		.word	SERCOM1_0_Handler
  88 010c 00000000 		.word	SERCOM1_1_Handler
  89 0110 00000000 		.word	SERCOM1_2_Handler
  90 0114 00000000 		.word	SERCOM1_OTHER_Handler
  91 0118 00000000 		.word	SERCOM2_0_Handler
  92 011c 00000000 		.word	SERCOM2_1_Handler
  93 0120 00000000 		.word	SERCOM2_2_Handler
  94 0124 00000000 		.word	SERCOM2_OTHER_Handler
  95 0128 00000000 		.word	SERCOM3_0_Handler
  96 012c 00000000 		.word	SERCOM3_1_Handler
  97 0130 00000000 		.word	SERCOM3_2_Handler
  98 0134 00000000 		.word	SERCOM3_OTHER_Handler
  99 0138 00000000 		.word	SERCOM4_0_Handler
 100 013c 00000000 		.word	SERCOM4_1_Handler
 101 0140 00000000 		.word	SERCOM4_2_Handler
 102 0144 00000000 		.word	SERCOM4_OTHER_Handler
 103 0148 00000000 		.word	SERCOM5_0_Handler
 104 014c 00000000 		.word	SERCOM5_1_Handler
 105 0150 00000000 		.word	SERCOM5_2_Handler
 106 0154 00000000 		.word	SERCOM5_OTHER_Handler
 107 0158 00000000 		.word	SERCOM6_0_Handler
 108 015c 00000000 		.word	SERCOM6_1_Handler
 109 0160 00000000 		.word	SERCOM6_2_Handler
 110 0164 00000000 		.word	SERCOM6_OTHER_Handler
 111 0168 00000000 		.word	SERCOM7_0_Handler
 112 016c 00000000 		.word	SERCOM7_1_Handler
 113 0170 00000000 		.word	SERCOM7_2_Handler
 114 0174 00000000 		.word	SERCOM7_OTHER_Handler
 115 0178 00000000 		.word	CAN0_Handler
 116 017c 00000000 		.word	CAN1_Handler
ARM GAS  C:\Users\cy023\AppData\Local\Temp\ccyGZuft.s 			page 3


 117 0180 00000000 		.word	USB_OTHER_Handler
 118 0184 00000000 		.word	USB_SOF_HSOF_Handler
 119 0188 00000000 		.word	USB_TRCPT0_Handler
 120 018c 00000000 		.word	USB_TRCPT1_Handler
 121 0190 00000000 		.word	GMAC_Handler
 122 0194 00000000 		.word	TCC0_OTHER_Handler
 123 0198 00000000 		.word	TCC0_MC0_Handler
 124 019c 00000000 		.word	TCC0_MC1_Handler
 125 01a0 00000000 		.word	TCC0_MC2_Handler
 126 01a4 00000000 		.word	TCC0_MC3_Handler
 127 01a8 00000000 		.word	TCC0_MC4_Handler
 128 01ac 00000000 		.word	TCC0_MC5_Handler
 129 01b0 00000000 		.word	TCC1_OTHER_Handler
 130 01b4 00000000 		.word	TCC1_MC0_Handler
 131 01b8 00000000 		.word	TCC1_MC1_Handler
 132 01bc 00000000 		.word	TCC1_MC2_Handler
 133 01c0 00000000 		.word	TCC1_MC3_Handler
 134 01c4 00000000 		.word	TCC2_OTHER_Handler
 135 01c8 00000000 		.word	TCC2_MC0_Handler
 136 01cc 00000000 		.word	TCC2_MC1_Handler
 137 01d0 00000000 		.word	TCC2_MC2_Handler
 138 01d4 00000000 		.word	TCC3_OTHER_Handler
 139 01d8 00000000 		.word	TCC3_MC0_Handler
 140 01dc 00000000 		.word	TCC3_MC1_Handler
 141 01e0 00000000 		.word	TCC4_OTHER_Handler
 142 01e4 00000000 		.word	TCC4_MC0_Handler
 143 01e8 00000000 		.word	TCC4_MC1_Handler
 144 01ec 00000000 		.word	TC0_Handler
 145 01f0 00000000 		.word	TC1_Handler
 146 01f4 00000000 		.word	TC2_Handler
 147 01f8 00000000 		.word	TC3_Handler
 148 01fc 00000000 		.word	TC4_Handler
 149 0200 00000000 		.word	TC5_Handler
 150 0204 00000000 		.word	TC6_Handler
 151 0208 00000000 		.word	TC7_Handler
 152 020c 00000000 		.word	PDEC_OTHER_Handler
 153 0210 00000000 		.word	PDEC_MC0_Handler
 154 0214 00000000 		.word	PDEC_MC1_Handler
 155 0218 00000000 		.word	ADC0_OTHER_Handler
 156 021c 00000000 		.word	ADC0_RESRDY_Handler
 157 0220 00000000 		.word	ADC1_OTHER_Handler
 158 0224 00000000 		.word	ADC1_RESRDY_Handler
 159 0228 00000000 		.word	AC_Handler
 160 022c 00000000 		.word	DAC_OTHER_Handler
 161 0230 00000000 		.word	DAC_EMPTY_0_Handler
 162 0234 00000000 		.word	DAC_EMPTY_1_Handler
 163 0238 00000000 		.word	DAC_RESRDY_0_Handler
 164 023c 00000000 		.word	DAC_RESRDY_1_Handler
 165 0240 00000000 		.word	I2S_Handler
 166 0244 00000000 		.word	PCC_Handler
 167 0248 00000000 		.word	AES_Handler
 168 024c 00000000 		.word	TRNG_Handler
 169 0250 00000000 		.word	ICM_Handler
 170 0254 00000000 		.word	PUKCC_Handler
 171 0258 00000000 		.word	QSPI_Handler
 172 025c 00000000 		.word	SDHC0_Handler
 173 0260 00000000 		.word	SDHC1_Handler
ARM GAS  C:\Users\cy023\AppData\Local\Temp\ccyGZuft.s 			page 4


 174              		.section	.text.Reset_Handler,"ax",%progbits
 175              		.align	1
 176              		.global	Reset_Handler
 177              		.arch armv7e-m
 178              		.syntax unified
 179              		.thumb
 180              		.thumb_func
 181              		.fpu softvfp
 183              	Reset_Handler:
 184              	.LFB130:
 185              		.file 1 "Device_Startup/startup_same54p20a.c"
   1:Device_Startup/startup_same54p20a.c **** /**
   2:Device_Startup/startup_same54p20a.c ****  * \file
   3:Device_Startup/startup_same54p20a.c ****  *
   4:Device_Startup/startup_same54p20a.c ****  * \brief GCC startup file for ATSAME54P20A
   5:Device_Startup/startup_same54p20a.c ****  *
   6:Device_Startup/startup_same54p20a.c ****  * Copyright (c) 2022 Microchip Technology Inc.
   7:Device_Startup/startup_same54p20a.c ****  *
   8:Device_Startup/startup_same54p20a.c ****  * \license_start
   9:Device_Startup/startup_same54p20a.c ****  *
  10:Device_Startup/startup_same54p20a.c ****  * \page License
  11:Device_Startup/startup_same54p20a.c ****  *
  12:Device_Startup/startup_same54p20a.c ****  * SPDX-License-Identifier: Apache-2.0
  13:Device_Startup/startup_same54p20a.c ****  *
  14:Device_Startup/startup_same54p20a.c ****  * Licensed under the Apache License, Version 2.0 (the "License");
  15:Device_Startup/startup_same54p20a.c ****  * you may not use this file except in compliance with the License.
  16:Device_Startup/startup_same54p20a.c ****  * You may obtain a copy of the License at
  17:Device_Startup/startup_same54p20a.c ****  *
  18:Device_Startup/startup_same54p20a.c ****  *   http://www.apache.org/licenses/LICENSE-2.0
  19:Device_Startup/startup_same54p20a.c ****  *
  20:Device_Startup/startup_same54p20a.c ****  * Unless required by applicable law or agreed to in writing, software
  21:Device_Startup/startup_same54p20a.c ****  * distributed under the License is distributed on an "AS IS" BASIS,
  22:Device_Startup/startup_same54p20a.c ****  * WITHOUT WARRANTIES OR CONDITIONS OF ANY KIND, either express or implied.
  23:Device_Startup/startup_same54p20a.c ****  * See the License for the specific language governing permissions and
  24:Device_Startup/startup_same54p20a.c ****  * limitations under the License.
  25:Device_Startup/startup_same54p20a.c ****  *
  26:Device_Startup/startup_same54p20a.c ****  * \license_stop
  27:Device_Startup/startup_same54p20a.c ****  *
  28:Device_Startup/startup_same54p20a.c ****  */
  29:Device_Startup/startup_same54p20a.c **** 
  30:Device_Startup/startup_same54p20a.c **** #include "same54p20a.h"
  31:Device_Startup/startup_same54p20a.c **** #define STACK_SIZE 0x1000
  32:Device_Startup/startup_same54p20a.c **** 
  33:Device_Startup/startup_same54p20a.c **** /* Initialize segments */
  34:Device_Startup/startup_same54p20a.c **** extern uint32_t _sfixed;
  35:Device_Startup/startup_same54p20a.c **** extern uint32_t _efixed;
  36:Device_Startup/startup_same54p20a.c **** extern uint32_t _etext;
  37:Device_Startup/startup_same54p20a.c **** extern uint32_t _srelocate;
  38:Device_Startup/startup_same54p20a.c **** extern uint32_t _erelocate;
  39:Device_Startup/startup_same54p20a.c **** extern uint32_t _szero;
  40:Device_Startup/startup_same54p20a.c **** extern uint32_t _ezero;
  41:Device_Startup/startup_same54p20a.c **** extern uint32_t _sstack;
  42:Device_Startup/startup_same54p20a.c **** extern uint32_t _estack;
  43:Device_Startup/startup_same54p20a.c **** 
  44:Device_Startup/startup_same54p20a.c **** /* Optional application-provided functions */
  45:Device_Startup/startup_same54p20a.c **** extern void __attribute__((weak,long_call)) _on_reset(void);
  46:Device_Startup/startup_same54p20a.c **** extern void __attribute__((weak,long_call)) _on_bootstrap(void);
ARM GAS  C:\Users\cy023\AppData\Local\Temp\ccyGZuft.s 			page 5


  47:Device_Startup/startup_same54p20a.c **** 
  48:Device_Startup/startup_same54p20a.c **** /** \cond DOXYGEN_SHOULD_SKIP_THIS */
  49:Device_Startup/startup_same54p20a.c **** int main(void);
  50:Device_Startup/startup_same54p20a.c **** /** \endcond */
  51:Device_Startup/startup_same54p20a.c **** 
  52:Device_Startup/startup_same54p20a.c **** void __libc_init_array(void);
  53:Device_Startup/startup_same54p20a.c **** 
  54:Device_Startup/startup_same54p20a.c **** /* Reset handler */
  55:Device_Startup/startup_same54p20a.c **** void Reset_Handler(void);
  56:Device_Startup/startup_same54p20a.c **** 
  57:Device_Startup/startup_same54p20a.c **** /* Default empty handler */
  58:Device_Startup/startup_same54p20a.c **** void Dummy_Handler(void);
  59:Device_Startup/startup_same54p20a.c **** 
  60:Device_Startup/startup_same54p20a.c **** /* Cortex-M4 core handlers */
  61:Device_Startup/startup_same54p20a.c **** void NonMaskableInt_Handler ( void ) __attribute__ ((weak, alias("Dummy_Handler")));
  62:Device_Startup/startup_same54p20a.c **** void HardFault_Handler    ( void ) __attribute__ ((weak, alias("Dummy_Handler")));
  63:Device_Startup/startup_same54p20a.c **** void MemoryManagement_Handler ( void ) __attribute__ ((weak, alias("Dummy_Handler")));
  64:Device_Startup/startup_same54p20a.c **** void BusFault_Handler     ( void ) __attribute__ ((weak, alias("Dummy_Handler")));
  65:Device_Startup/startup_same54p20a.c **** void UsageFault_Handler   ( void ) __attribute__ ((weak, alias("Dummy_Handler")));
  66:Device_Startup/startup_same54p20a.c **** void SVCall_Handler       ( void ) __attribute__ ((weak, alias("Dummy_Handler")));
  67:Device_Startup/startup_same54p20a.c **** void DebugMonitor_Handler ( void ) __attribute__ ((weak, alias("Dummy_Handler")));
  68:Device_Startup/startup_same54p20a.c **** void PendSV_Handler       ( void ) __attribute__ ((weak, alias("Dummy_Handler")));
  69:Device_Startup/startup_same54p20a.c **** void SysTick_Handler      ( void ) __attribute__ ((weak, alias("Dummy_Handler")));
  70:Device_Startup/startup_same54p20a.c **** 
  71:Device_Startup/startup_same54p20a.c **** /* Peripherals handlers */
  72:Device_Startup/startup_same54p20a.c **** void PM_Handler           ( void ) __attribute__ ((weak, alias("Dummy_Handler")));
  73:Device_Startup/startup_same54p20a.c **** void MCLK_Handler         ( void ) __attribute__ ((weak, alias("Dummy_Handler")));
  74:Device_Startup/startup_same54p20a.c **** void OSCCTRL_XOSC0_Handler ( void ) __attribute__ ((weak, alias("Dummy_Handler")));
  75:Device_Startup/startup_same54p20a.c **** void OSCCTRL_XOSC1_Handler ( void ) __attribute__ ((weak, alias("Dummy_Handler")));
  76:Device_Startup/startup_same54p20a.c **** void OSCCTRL_DFLL_Handler ( void ) __attribute__ ((weak, alias("Dummy_Handler")));
  77:Device_Startup/startup_same54p20a.c **** void OSCCTRL_DPLL0_Handler ( void ) __attribute__ ((weak, alias("Dummy_Handler")));
  78:Device_Startup/startup_same54p20a.c **** void OSCCTRL_DPLL1_Handler ( void ) __attribute__ ((weak, alias("Dummy_Handler")));
  79:Device_Startup/startup_same54p20a.c **** void OSC32KCTRL_Handler   ( void ) __attribute__ ((weak, alias("Dummy_Handler")));
  80:Device_Startup/startup_same54p20a.c **** void SUPC_OTHER_Handler   ( void ) __attribute__ ((weak, alias("Dummy_Handler")));
  81:Device_Startup/startup_same54p20a.c **** void SUPC_BODDET_Handler  ( void ) __attribute__ ((weak, alias("Dummy_Handler")));
  82:Device_Startup/startup_same54p20a.c **** void WDT_Handler          ( void ) __attribute__ ((weak, alias("Dummy_Handler")));
  83:Device_Startup/startup_same54p20a.c **** void RTC_Handler          ( void ) __attribute__ ((weak, alias("Dummy_Handler")));
  84:Device_Startup/startup_same54p20a.c **** void EIC_EXTINT_0_Handler ( void ) __attribute__ ((weak, alias("Dummy_Handler")));
  85:Device_Startup/startup_same54p20a.c **** void EIC_EXTINT_1_Handler ( void ) __attribute__ ((weak, alias("Dummy_Handler")));
  86:Device_Startup/startup_same54p20a.c **** void EIC_EXTINT_2_Handler ( void ) __attribute__ ((weak, alias("Dummy_Handler")));
  87:Device_Startup/startup_same54p20a.c **** void EIC_EXTINT_3_Handler ( void ) __attribute__ ((weak, alias("Dummy_Handler")));
  88:Device_Startup/startup_same54p20a.c **** void EIC_EXTINT_4_Handler ( void ) __attribute__ ((weak, alias("Dummy_Handler")));
  89:Device_Startup/startup_same54p20a.c **** void EIC_EXTINT_5_Handler ( void ) __attribute__ ((weak, alias("Dummy_Handler")));
  90:Device_Startup/startup_same54p20a.c **** void EIC_EXTINT_6_Handler ( void ) __attribute__ ((weak, alias("Dummy_Handler")));
  91:Device_Startup/startup_same54p20a.c **** void EIC_EXTINT_7_Handler ( void ) __attribute__ ((weak, alias("Dummy_Handler")));
  92:Device_Startup/startup_same54p20a.c **** void EIC_EXTINT_8_Handler ( void ) __attribute__ ((weak, alias("Dummy_Handler")));
  93:Device_Startup/startup_same54p20a.c **** void EIC_EXTINT_9_Handler ( void ) __attribute__ ((weak, alias("Dummy_Handler")));
  94:Device_Startup/startup_same54p20a.c **** void EIC_EXTINT_10_Handler ( void ) __attribute__ ((weak, alias("Dummy_Handler")));
  95:Device_Startup/startup_same54p20a.c **** void EIC_EXTINT_11_Handler ( void ) __attribute__ ((weak, alias("Dummy_Handler")));
  96:Device_Startup/startup_same54p20a.c **** void EIC_EXTINT_12_Handler ( void ) __attribute__ ((weak, alias("Dummy_Handler")));
  97:Device_Startup/startup_same54p20a.c **** void EIC_EXTINT_13_Handler ( void ) __attribute__ ((weak, alias("Dummy_Handler")));
  98:Device_Startup/startup_same54p20a.c **** void EIC_EXTINT_14_Handler ( void ) __attribute__ ((weak, alias("Dummy_Handler")));
  99:Device_Startup/startup_same54p20a.c **** void EIC_EXTINT_15_Handler ( void ) __attribute__ ((weak, alias("Dummy_Handler")));
 100:Device_Startup/startup_same54p20a.c **** void FREQM_Handler        ( void ) __attribute__ ((weak, alias("Dummy_Handler")));
 101:Device_Startup/startup_same54p20a.c **** void NVMCTRL_0_Handler    ( void ) __attribute__ ((weak, alias("Dummy_Handler")));
 102:Device_Startup/startup_same54p20a.c **** void NVMCTRL_1_Handler    ( void ) __attribute__ ((weak, alias("Dummy_Handler")));
 103:Device_Startup/startup_same54p20a.c **** void DMAC_0_Handler       ( void ) __attribute__ ((weak, alias("Dummy_Handler")));
ARM GAS  C:\Users\cy023\AppData\Local\Temp\ccyGZuft.s 			page 6


 104:Device_Startup/startup_same54p20a.c **** void DMAC_1_Handler       ( void ) __attribute__ ((weak, alias("Dummy_Handler")));
 105:Device_Startup/startup_same54p20a.c **** void DMAC_2_Handler       ( void ) __attribute__ ((weak, alias("Dummy_Handler")));
 106:Device_Startup/startup_same54p20a.c **** void DMAC_3_Handler       ( void ) __attribute__ ((weak, alias("Dummy_Handler")));
 107:Device_Startup/startup_same54p20a.c **** void DMAC_OTHER_Handler   ( void ) __attribute__ ((weak, alias("Dummy_Handler")));
 108:Device_Startup/startup_same54p20a.c **** void EVSYS_0_Handler      ( void ) __attribute__ ((weak, alias("Dummy_Handler")));
 109:Device_Startup/startup_same54p20a.c **** void EVSYS_1_Handler      ( void ) __attribute__ ((weak, alias("Dummy_Handler")));
 110:Device_Startup/startup_same54p20a.c **** void EVSYS_2_Handler      ( void ) __attribute__ ((weak, alias("Dummy_Handler")));
 111:Device_Startup/startup_same54p20a.c **** void EVSYS_3_Handler      ( void ) __attribute__ ((weak, alias("Dummy_Handler")));
 112:Device_Startup/startup_same54p20a.c **** void EVSYS_OTHER_Handler  ( void ) __attribute__ ((weak, alias("Dummy_Handler")));
 113:Device_Startup/startup_same54p20a.c **** void PAC_Handler          ( void ) __attribute__ ((weak, alias("Dummy_Handler")));
 114:Device_Startup/startup_same54p20a.c **** void RAMECC_Handler       ( void ) __attribute__ ((weak, alias("Dummy_Handler")));
 115:Device_Startup/startup_same54p20a.c **** void SERCOM0_0_Handler    ( void ) __attribute__ ((weak, alias("Dummy_Handler")));
 116:Device_Startup/startup_same54p20a.c **** void SERCOM0_1_Handler    ( void ) __attribute__ ((weak, alias("Dummy_Handler")));
 117:Device_Startup/startup_same54p20a.c **** void SERCOM0_2_Handler    ( void ) __attribute__ ((weak, alias("Dummy_Handler")));
 118:Device_Startup/startup_same54p20a.c **** void SERCOM0_OTHER_Handler ( void ) __attribute__ ((weak, alias("Dummy_Handler")));
 119:Device_Startup/startup_same54p20a.c **** void SERCOM1_0_Handler    ( void ) __attribute__ ((weak, alias("Dummy_Handler")));
 120:Device_Startup/startup_same54p20a.c **** void SERCOM1_1_Handler    ( void ) __attribute__ ((weak, alias("Dummy_Handler")));
 121:Device_Startup/startup_same54p20a.c **** void SERCOM1_2_Handler    ( void ) __attribute__ ((weak, alias("Dummy_Handler")));
 122:Device_Startup/startup_same54p20a.c **** void SERCOM1_OTHER_Handler ( void ) __attribute__ ((weak, alias("Dummy_Handler")));
 123:Device_Startup/startup_same54p20a.c **** void SERCOM2_0_Handler    ( void ) __attribute__ ((weak, alias("Dummy_Handler")));
 124:Device_Startup/startup_same54p20a.c **** void SERCOM2_1_Handler    ( void ) __attribute__ ((weak, alias("Dummy_Handler")));
 125:Device_Startup/startup_same54p20a.c **** void SERCOM2_2_Handler    ( void ) __attribute__ ((weak, alias("Dummy_Handler")));
 126:Device_Startup/startup_same54p20a.c **** void SERCOM2_OTHER_Handler ( void ) __attribute__ ((weak, alias("Dummy_Handler")));
 127:Device_Startup/startup_same54p20a.c **** void SERCOM3_0_Handler    ( void ) __attribute__ ((weak, alias("Dummy_Handler")));
 128:Device_Startup/startup_same54p20a.c **** void SERCOM3_1_Handler    ( void ) __attribute__ ((weak, alias("Dummy_Handler")));
 129:Device_Startup/startup_same54p20a.c **** void SERCOM3_2_Handler    ( void ) __attribute__ ((weak, alias("Dummy_Handler")));
 130:Device_Startup/startup_same54p20a.c **** void SERCOM3_OTHER_Handler ( void ) __attribute__ ((weak, alias("Dummy_Handler")));
 131:Device_Startup/startup_same54p20a.c **** void SERCOM4_0_Handler    ( void ) __attribute__ ((weak, alias("Dummy_Handler")));
 132:Device_Startup/startup_same54p20a.c **** void SERCOM4_1_Handler    ( void ) __attribute__ ((weak, alias("Dummy_Handler")));
 133:Device_Startup/startup_same54p20a.c **** void SERCOM4_2_Handler    ( void ) __attribute__ ((weak, alias("Dummy_Handler")));
 134:Device_Startup/startup_same54p20a.c **** void SERCOM4_OTHER_Handler ( void ) __attribute__ ((weak, alias("Dummy_Handler")));
 135:Device_Startup/startup_same54p20a.c **** void SERCOM5_0_Handler    ( void ) __attribute__ ((weak, alias("Dummy_Handler")));
 136:Device_Startup/startup_same54p20a.c **** void SERCOM5_1_Handler    ( void ) __attribute__ ((weak, alias("Dummy_Handler")));
 137:Device_Startup/startup_same54p20a.c **** void SERCOM5_2_Handler    ( void ) __attribute__ ((weak, alias("Dummy_Handler")));
 138:Device_Startup/startup_same54p20a.c **** void SERCOM5_OTHER_Handler ( void ) __attribute__ ((weak, alias("Dummy_Handler")));
 139:Device_Startup/startup_same54p20a.c **** void SERCOM6_0_Handler    ( void ) __attribute__ ((weak, alias("Dummy_Handler")));
 140:Device_Startup/startup_same54p20a.c **** void SERCOM6_1_Handler    ( void ) __attribute__ ((weak, alias("Dummy_Handler")));
 141:Device_Startup/startup_same54p20a.c **** void SERCOM6_2_Handler    ( void ) __attribute__ ((weak, alias("Dummy_Handler")));
 142:Device_Startup/startup_same54p20a.c **** void SERCOM6_OTHER_Handler ( void ) __attribute__ ((weak, alias("Dummy_Handler")));
 143:Device_Startup/startup_same54p20a.c **** void SERCOM7_0_Handler    ( void ) __attribute__ ((weak, alias("Dummy_Handler")));
 144:Device_Startup/startup_same54p20a.c **** void SERCOM7_1_Handler    ( void ) __attribute__ ((weak, alias("Dummy_Handler")));
 145:Device_Startup/startup_same54p20a.c **** void SERCOM7_2_Handler    ( void ) __attribute__ ((weak, alias("Dummy_Handler")));
 146:Device_Startup/startup_same54p20a.c **** void SERCOM7_OTHER_Handler ( void ) __attribute__ ((weak, alias("Dummy_Handler")));
 147:Device_Startup/startup_same54p20a.c **** void CAN0_Handler         ( void ) __attribute__ ((weak, alias("Dummy_Handler")));
 148:Device_Startup/startup_same54p20a.c **** void CAN1_Handler         ( void ) __attribute__ ((weak, alias("Dummy_Handler")));
 149:Device_Startup/startup_same54p20a.c **** void USB_OTHER_Handler    ( void ) __attribute__ ((weak, alias("Dummy_Handler")));
 150:Device_Startup/startup_same54p20a.c **** void USB_SOF_HSOF_Handler ( void ) __attribute__ ((weak, alias("Dummy_Handler")));
 151:Device_Startup/startup_same54p20a.c **** void USB_TRCPT0_Handler   ( void ) __attribute__ ((weak, alias("Dummy_Handler")));
 152:Device_Startup/startup_same54p20a.c **** void USB_TRCPT1_Handler   ( void ) __attribute__ ((weak, alias("Dummy_Handler")));
 153:Device_Startup/startup_same54p20a.c **** void GMAC_Handler         ( void ) __attribute__ ((weak, alias("Dummy_Handler")));
 154:Device_Startup/startup_same54p20a.c **** void TCC0_OTHER_Handler   ( void ) __attribute__ ((weak, alias("Dummy_Handler")));
 155:Device_Startup/startup_same54p20a.c **** void TCC0_MC0_Handler     ( void ) __attribute__ ((weak, alias("Dummy_Handler")));
 156:Device_Startup/startup_same54p20a.c **** void TCC0_MC1_Handler     ( void ) __attribute__ ((weak, alias("Dummy_Handler")));
 157:Device_Startup/startup_same54p20a.c **** void TCC0_MC2_Handler     ( void ) __attribute__ ((weak, alias("Dummy_Handler")));
 158:Device_Startup/startup_same54p20a.c **** void TCC0_MC3_Handler     ( void ) __attribute__ ((weak, alias("Dummy_Handler")));
 159:Device_Startup/startup_same54p20a.c **** void TCC0_MC4_Handler     ( void ) __attribute__ ((weak, alias("Dummy_Handler")));
 160:Device_Startup/startup_same54p20a.c **** void TCC0_MC5_Handler     ( void ) __attribute__ ((weak, alias("Dummy_Handler")));
ARM GAS  C:\Users\cy023\AppData\Local\Temp\ccyGZuft.s 			page 7


 161:Device_Startup/startup_same54p20a.c **** void TCC1_OTHER_Handler   ( void ) __attribute__ ((weak, alias("Dummy_Handler")));
 162:Device_Startup/startup_same54p20a.c **** void TCC1_MC0_Handler     ( void ) __attribute__ ((weak, alias("Dummy_Handler")));
 163:Device_Startup/startup_same54p20a.c **** void TCC1_MC1_Handler     ( void ) __attribute__ ((weak, alias("Dummy_Handler")));
 164:Device_Startup/startup_same54p20a.c **** void TCC1_MC2_Handler     ( void ) __attribute__ ((weak, alias("Dummy_Handler")));
 165:Device_Startup/startup_same54p20a.c **** void TCC1_MC3_Handler     ( void ) __attribute__ ((weak, alias("Dummy_Handler")));
 166:Device_Startup/startup_same54p20a.c **** void TCC2_OTHER_Handler   ( void ) __attribute__ ((weak, alias("Dummy_Handler")));
 167:Device_Startup/startup_same54p20a.c **** void TCC2_MC0_Handler     ( void ) __attribute__ ((weak, alias("Dummy_Handler")));
 168:Device_Startup/startup_same54p20a.c **** void TCC2_MC1_Handler     ( void ) __attribute__ ((weak, alias("Dummy_Handler")));
 169:Device_Startup/startup_same54p20a.c **** void TCC2_MC2_Handler     ( void ) __attribute__ ((weak, alias("Dummy_Handler")));
 170:Device_Startup/startup_same54p20a.c **** void TCC3_OTHER_Handler   ( void ) __attribute__ ((weak, alias("Dummy_Handler")));
 171:Device_Startup/startup_same54p20a.c **** void TCC3_MC0_Handler     ( void ) __attribute__ ((weak, alias("Dummy_Handler")));
 172:Device_Startup/startup_same54p20a.c **** void TCC3_MC1_Handler     ( void ) __attribute__ ((weak, alias("Dummy_Handler")));
 173:Device_Startup/startup_same54p20a.c **** void TCC4_OTHER_Handler   ( void ) __attribute__ ((weak, alias("Dummy_Handler")));
 174:Device_Startup/startup_same54p20a.c **** void TCC4_MC0_Handler     ( void ) __attribute__ ((weak, alias("Dummy_Handler")));
 175:Device_Startup/startup_same54p20a.c **** void TCC4_MC1_Handler     ( void ) __attribute__ ((weak, alias("Dummy_Handler")));
 176:Device_Startup/startup_same54p20a.c **** void TC0_Handler          ( void ) __attribute__ ((weak, alias("Dummy_Handler")));
 177:Device_Startup/startup_same54p20a.c **** void TC1_Handler          ( void ) __attribute__ ((weak, alias("Dummy_Handler")));
 178:Device_Startup/startup_same54p20a.c **** void TC2_Handler          ( void ) __attribute__ ((weak, alias("Dummy_Handler")));
 179:Device_Startup/startup_same54p20a.c **** void TC3_Handler          ( void ) __attribute__ ((weak, alias("Dummy_Handler")));
 180:Device_Startup/startup_same54p20a.c **** void TC4_Handler          ( void ) __attribute__ ((weak, alias("Dummy_Handler")));
 181:Device_Startup/startup_same54p20a.c **** void TC5_Handler          ( void ) __attribute__ ((weak, alias("Dummy_Handler")));
 182:Device_Startup/startup_same54p20a.c **** void TC6_Handler          ( void ) __attribute__ ((weak, alias("Dummy_Handler")));
 183:Device_Startup/startup_same54p20a.c **** void TC7_Handler          ( void ) __attribute__ ((weak, alias("Dummy_Handler")));
 184:Device_Startup/startup_same54p20a.c **** void PDEC_OTHER_Handler   ( void ) __attribute__ ((weak, alias("Dummy_Handler")));
 185:Device_Startup/startup_same54p20a.c **** void PDEC_MC0_Handler     ( void ) __attribute__ ((weak, alias("Dummy_Handler")));
 186:Device_Startup/startup_same54p20a.c **** void PDEC_MC1_Handler     ( void ) __attribute__ ((weak, alias("Dummy_Handler")));
 187:Device_Startup/startup_same54p20a.c **** void ADC0_OTHER_Handler   ( void ) __attribute__ ((weak, alias("Dummy_Handler")));
 188:Device_Startup/startup_same54p20a.c **** void ADC0_RESRDY_Handler  ( void ) __attribute__ ((weak, alias("Dummy_Handler")));
 189:Device_Startup/startup_same54p20a.c **** void ADC1_OTHER_Handler   ( void ) __attribute__ ((weak, alias("Dummy_Handler")));
 190:Device_Startup/startup_same54p20a.c **** void ADC1_RESRDY_Handler  ( void ) __attribute__ ((weak, alias("Dummy_Handler")));
 191:Device_Startup/startup_same54p20a.c **** void AC_Handler           ( void ) __attribute__ ((weak, alias("Dummy_Handler")));
 192:Device_Startup/startup_same54p20a.c **** void DAC_OTHER_Handler    ( void ) __attribute__ ((weak, alias("Dummy_Handler")));
 193:Device_Startup/startup_same54p20a.c **** void DAC_EMPTY_0_Handler  ( void ) __attribute__ ((weak, alias("Dummy_Handler")));
 194:Device_Startup/startup_same54p20a.c **** void DAC_EMPTY_1_Handler  ( void ) __attribute__ ((weak, alias("Dummy_Handler")));
 195:Device_Startup/startup_same54p20a.c **** void DAC_RESRDY_0_Handler ( void ) __attribute__ ((weak, alias("Dummy_Handler")));
 196:Device_Startup/startup_same54p20a.c **** void DAC_RESRDY_1_Handler ( void ) __attribute__ ((weak, alias("Dummy_Handler")));
 197:Device_Startup/startup_same54p20a.c **** void I2S_Handler          ( void ) __attribute__ ((weak, alias("Dummy_Handler")));
 198:Device_Startup/startup_same54p20a.c **** void PCC_Handler          ( void ) __attribute__ ((weak, alias("Dummy_Handler")));
 199:Device_Startup/startup_same54p20a.c **** void AES_Handler          ( void ) __attribute__ ((weak, alias("Dummy_Handler")));
 200:Device_Startup/startup_same54p20a.c **** void TRNG_Handler         ( void ) __attribute__ ((weak, alias("Dummy_Handler")));
 201:Device_Startup/startup_same54p20a.c **** void ICM_Handler          ( void ) __attribute__ ((weak, alias("Dummy_Handler")));
 202:Device_Startup/startup_same54p20a.c **** void PUKCC_Handler        ( void ) __attribute__ ((weak, alias("Dummy_Handler")));
 203:Device_Startup/startup_same54p20a.c **** void QSPI_Handler         ( void ) __attribute__ ((weak, alias("Dummy_Handler")));
 204:Device_Startup/startup_same54p20a.c **** void SDHC0_Handler        ( void ) __attribute__ ((weak, alias("Dummy_Handler")));
 205:Device_Startup/startup_same54p20a.c **** void SDHC1_Handler        ( void ) __attribute__ ((weak, alias("Dummy_Handler")));
 206:Device_Startup/startup_same54p20a.c **** 
 207:Device_Startup/startup_same54p20a.c **** /* Exception Table */
 208:Device_Startup/startup_same54p20a.c **** __attribute__ ((section(".vectors")))
 209:Device_Startup/startup_same54p20a.c **** const DeviceVectors exception_table = {
 210:Device_Startup/startup_same54p20a.c **** 
 211:Device_Startup/startup_same54p20a.c ****         /* Configure Initial Stack Pointer, using linker-generated symbols */
 212:Device_Startup/startup_same54p20a.c ****         .pvStack = (void*) (&_estack),
 213:Device_Startup/startup_same54p20a.c **** 
 214:Device_Startup/startup_same54p20a.c ****         .pfnReset_Handler              = (void*) Reset_Handler,
 215:Device_Startup/startup_same54p20a.c ****         .pfnNonMaskableInt_Handler     = (void*) NonMaskableInt_Handler,
 216:Device_Startup/startup_same54p20a.c ****         .pfnHardFault_Handler          = (void*) HardFault_Handler,
 217:Device_Startup/startup_same54p20a.c ****         .pfnMemoryManagement_Handler   = (void*) MemoryManagement_Handler,
ARM GAS  C:\Users\cy023\AppData\Local\Temp\ccyGZuft.s 			page 8


 218:Device_Startup/startup_same54p20a.c ****         .pfnBusFault_Handler           = (void*) BusFault_Handler,
 219:Device_Startup/startup_same54p20a.c ****         .pfnUsageFault_Handler         = (void*) UsageFault_Handler,
 220:Device_Startup/startup_same54p20a.c ****         .pvReservedC9                  = (void*) (0UL), /* Reserved */
 221:Device_Startup/startup_same54p20a.c ****         .pvReservedC8                  = (void*) (0UL), /* Reserved */
 222:Device_Startup/startup_same54p20a.c ****         .pvReservedC7                  = (void*) (0UL), /* Reserved */
 223:Device_Startup/startup_same54p20a.c ****         .pvReservedC6                  = (void*) (0UL), /* Reserved */
 224:Device_Startup/startup_same54p20a.c ****         .pfnSVCall_Handler             = (void*) SVCall_Handler,
 225:Device_Startup/startup_same54p20a.c ****         .pfnDebugMonitor_Handler       = (void*) DebugMonitor_Handler,
 226:Device_Startup/startup_same54p20a.c ****         .pvReservedC3                  = (void*) (0UL), /* Reserved */
 227:Device_Startup/startup_same54p20a.c ****         .pfnPendSV_Handler             = (void*) PendSV_Handler,
 228:Device_Startup/startup_same54p20a.c ****         .pfnSysTick_Handler            = (void*) SysTick_Handler,
 229:Device_Startup/startup_same54p20a.c **** 
 230:Device_Startup/startup_same54p20a.c ****         /* Configurable interrupts */
 231:Device_Startup/startup_same54p20a.c ****         .pfnPM_Handler                 = (void*) PM_Handler,     /* 0  Power Manager */
 232:Device_Startup/startup_same54p20a.c ****         .pfnMCLK_Handler               = (void*) MCLK_Handler,   /* 1  Main Clock */
 233:Device_Startup/startup_same54p20a.c ****         .pfnOSCCTRL_XOSC0_Handler      = (void*) OSCCTRL_XOSC0_Handler, /* 2  Oscillators Control *
 234:Device_Startup/startup_same54p20a.c ****         .pfnOSCCTRL_XOSC1_Handler      = (void*) OSCCTRL_XOSC1_Handler, /* 3  Oscillators Control *
 235:Device_Startup/startup_same54p20a.c ****         .pfnOSCCTRL_DFLL_Handler       = (void*) OSCCTRL_DFLL_Handler, /* 4  Oscillators Control */
 236:Device_Startup/startup_same54p20a.c ****         .pfnOSCCTRL_DPLL0_Handler      = (void*) OSCCTRL_DPLL0_Handler, /* 5  Oscillators Control *
 237:Device_Startup/startup_same54p20a.c ****         .pfnOSCCTRL_DPLL1_Handler      = (void*) OSCCTRL_DPLL1_Handler, /* 6  Oscillators Control *
 238:Device_Startup/startup_same54p20a.c ****         .pfnOSC32KCTRL_Handler         = (void*) OSC32KCTRL_Handler, /* 7  32kHz Oscillators Contro
 239:Device_Startup/startup_same54p20a.c ****         .pfnSUPC_OTHER_Handler         = (void*) SUPC_OTHER_Handler, /* 8  Supply Controller */
 240:Device_Startup/startup_same54p20a.c ****         .pfnSUPC_BODDET_Handler        = (void*) SUPC_BODDET_Handler, /* 9  Supply Controller */
 241:Device_Startup/startup_same54p20a.c ****         .pfnWDT_Handler                = (void*) WDT_Handler,    /* 10 Watchdog Timer */
 242:Device_Startup/startup_same54p20a.c ****         .pfnRTC_Handler                = (void*) RTC_Handler,    /* 11 Real-Time Counter */
 243:Device_Startup/startup_same54p20a.c ****         .pfnEIC_EXTINT_0_Handler       = (void*) EIC_EXTINT_0_Handler, /* 12 External Interrupt Con
 244:Device_Startup/startup_same54p20a.c ****         .pfnEIC_EXTINT_1_Handler       = (void*) EIC_EXTINT_1_Handler, /* 13 External Interrupt Con
 245:Device_Startup/startup_same54p20a.c ****         .pfnEIC_EXTINT_2_Handler       = (void*) EIC_EXTINT_2_Handler, /* 14 External Interrupt Con
 246:Device_Startup/startup_same54p20a.c ****         .pfnEIC_EXTINT_3_Handler       = (void*) EIC_EXTINT_3_Handler, /* 15 External Interrupt Con
 247:Device_Startup/startup_same54p20a.c ****         .pfnEIC_EXTINT_4_Handler       = (void*) EIC_EXTINT_4_Handler, /* 16 External Interrupt Con
 248:Device_Startup/startup_same54p20a.c ****         .pfnEIC_EXTINT_5_Handler       = (void*) EIC_EXTINT_5_Handler, /* 17 External Interrupt Con
 249:Device_Startup/startup_same54p20a.c ****         .pfnEIC_EXTINT_6_Handler       = (void*) EIC_EXTINT_6_Handler, /* 18 External Interrupt Con
 250:Device_Startup/startup_same54p20a.c ****         .pfnEIC_EXTINT_7_Handler       = (void*) EIC_EXTINT_7_Handler, /* 19 External Interrupt Con
 251:Device_Startup/startup_same54p20a.c ****         .pfnEIC_EXTINT_8_Handler       = (void*) EIC_EXTINT_8_Handler, /* 20 External Interrupt Con
 252:Device_Startup/startup_same54p20a.c ****         .pfnEIC_EXTINT_9_Handler       = (void*) EIC_EXTINT_9_Handler, /* 21 External Interrupt Con
 253:Device_Startup/startup_same54p20a.c ****         .pfnEIC_EXTINT_10_Handler      = (void*) EIC_EXTINT_10_Handler, /* 22 External Interrupt Co
 254:Device_Startup/startup_same54p20a.c ****         .pfnEIC_EXTINT_11_Handler      = (void*) EIC_EXTINT_11_Handler, /* 23 External Interrupt Co
 255:Device_Startup/startup_same54p20a.c ****         .pfnEIC_EXTINT_12_Handler      = (void*) EIC_EXTINT_12_Handler, /* 24 External Interrupt Co
 256:Device_Startup/startup_same54p20a.c ****         .pfnEIC_EXTINT_13_Handler      = (void*) EIC_EXTINT_13_Handler, /* 25 External Interrupt Co
 257:Device_Startup/startup_same54p20a.c ****         .pfnEIC_EXTINT_14_Handler      = (void*) EIC_EXTINT_14_Handler, /* 26 External Interrupt Co
 258:Device_Startup/startup_same54p20a.c ****         .pfnEIC_EXTINT_15_Handler      = (void*) EIC_EXTINT_15_Handler, /* 27 External Interrupt Co
 259:Device_Startup/startup_same54p20a.c ****         .pfnFREQM_Handler              = (void*) FREQM_Handler,  /* 28 Frequency Meter */
 260:Device_Startup/startup_same54p20a.c ****         .pfnNVMCTRL_0_Handler          = (void*) NVMCTRL_0_Handler, /* 29 Non-Volatile Memory Contr
 261:Device_Startup/startup_same54p20a.c ****         .pfnNVMCTRL_1_Handler          = (void*) NVMCTRL_1_Handler, /* 30 Non-Volatile Memory Contr
 262:Device_Startup/startup_same54p20a.c ****         .pfnDMAC_0_Handler             = (void*) DMAC_0_Handler, /* 31 Direct Memory Access Control
 263:Device_Startup/startup_same54p20a.c ****         .pfnDMAC_1_Handler             = (void*) DMAC_1_Handler, /* 32 Direct Memory Access Control
 264:Device_Startup/startup_same54p20a.c ****         .pfnDMAC_2_Handler             = (void*) DMAC_2_Handler, /* 33 Direct Memory Access Control
 265:Device_Startup/startup_same54p20a.c ****         .pfnDMAC_3_Handler             = (void*) DMAC_3_Handler, /* 34 Direct Memory Access Control
 266:Device_Startup/startup_same54p20a.c ****         .pfnDMAC_OTHER_Handler         = (void*) DMAC_OTHER_Handler, /* 35 Direct Memory Access Con
 267:Device_Startup/startup_same54p20a.c ****         .pfnEVSYS_0_Handler            = (void*) EVSYS_0_Handler, /* 36 Event System Interface */
 268:Device_Startup/startup_same54p20a.c ****         .pfnEVSYS_1_Handler            = (void*) EVSYS_1_Handler, /* 37 Event System Interface */
 269:Device_Startup/startup_same54p20a.c ****         .pfnEVSYS_2_Handler            = (void*) EVSYS_2_Handler, /* 38 Event System Interface */
 270:Device_Startup/startup_same54p20a.c ****         .pfnEVSYS_3_Handler            = (void*) EVSYS_3_Handler, /* 39 Event System Interface */
 271:Device_Startup/startup_same54p20a.c ****         .pfnEVSYS_OTHER_Handler        = (void*) EVSYS_OTHER_Handler, /* 40 Event System Interface 
 272:Device_Startup/startup_same54p20a.c ****         .pfnPAC_Handler                = (void*) PAC_Handler,    /* 41 Peripheral Access Controller
 273:Device_Startup/startup_same54p20a.c ****         .pvReserved42                  = (void*) (0UL),          /* 42 Reserved */
 274:Device_Startup/startup_same54p20a.c ****         .pvReserved43                  = (void*) (0UL),          /* 43 Reserved */
ARM GAS  C:\Users\cy023\AppData\Local\Temp\ccyGZuft.s 			page 9


 275:Device_Startup/startup_same54p20a.c ****         .pvReserved44                  = (void*) (0UL),          /* 44 Reserved */
 276:Device_Startup/startup_same54p20a.c ****         .pfnRAMECC_Handler             = (void*) RAMECC_Handler, /* 45 RAM ECC */
 277:Device_Startup/startup_same54p20a.c ****         .pfnSERCOM0_0_Handler          = (void*) SERCOM0_0_Handler, /* 46 Serial Communication Inte
 278:Device_Startup/startup_same54p20a.c ****         .pfnSERCOM0_1_Handler          = (void*) SERCOM0_1_Handler, /* 47 Serial Communication Inte
 279:Device_Startup/startup_same54p20a.c ****         .pfnSERCOM0_2_Handler          = (void*) SERCOM0_2_Handler, /* 48 Serial Communication Inte
 280:Device_Startup/startup_same54p20a.c ****         .pfnSERCOM0_OTHER_Handler      = (void*) SERCOM0_OTHER_Handler, /* 49 Serial Communication 
 281:Device_Startup/startup_same54p20a.c ****         .pfnSERCOM1_0_Handler          = (void*) SERCOM1_0_Handler, /* 50 Serial Communication Inte
 282:Device_Startup/startup_same54p20a.c ****         .pfnSERCOM1_1_Handler          = (void*) SERCOM1_1_Handler, /* 51 Serial Communication Inte
 283:Device_Startup/startup_same54p20a.c ****         .pfnSERCOM1_2_Handler          = (void*) SERCOM1_2_Handler, /* 52 Serial Communication Inte
 284:Device_Startup/startup_same54p20a.c ****         .pfnSERCOM1_OTHER_Handler      = (void*) SERCOM1_OTHER_Handler, /* 53 Serial Communication 
 285:Device_Startup/startup_same54p20a.c ****         .pfnSERCOM2_0_Handler          = (void*) SERCOM2_0_Handler, /* 54 Serial Communication Inte
 286:Device_Startup/startup_same54p20a.c ****         .pfnSERCOM2_1_Handler          = (void*) SERCOM2_1_Handler, /* 55 Serial Communication Inte
 287:Device_Startup/startup_same54p20a.c ****         .pfnSERCOM2_2_Handler          = (void*) SERCOM2_2_Handler, /* 56 Serial Communication Inte
 288:Device_Startup/startup_same54p20a.c ****         .pfnSERCOM2_OTHER_Handler      = (void*) SERCOM2_OTHER_Handler, /* 57 Serial Communication 
 289:Device_Startup/startup_same54p20a.c ****         .pfnSERCOM3_0_Handler          = (void*) SERCOM3_0_Handler, /* 58 Serial Communication Inte
 290:Device_Startup/startup_same54p20a.c ****         .pfnSERCOM3_1_Handler          = (void*) SERCOM3_1_Handler, /* 59 Serial Communication Inte
 291:Device_Startup/startup_same54p20a.c ****         .pfnSERCOM3_2_Handler          = (void*) SERCOM3_2_Handler, /* 60 Serial Communication Inte
 292:Device_Startup/startup_same54p20a.c ****         .pfnSERCOM3_OTHER_Handler      = (void*) SERCOM3_OTHER_Handler, /* 61 Serial Communication 
 293:Device_Startup/startup_same54p20a.c ****         .pfnSERCOM4_0_Handler          = (void*) SERCOM4_0_Handler, /* 62 Serial Communication Inte
 294:Device_Startup/startup_same54p20a.c ****         .pfnSERCOM4_1_Handler          = (void*) SERCOM4_1_Handler, /* 63 Serial Communication Inte
 295:Device_Startup/startup_same54p20a.c ****         .pfnSERCOM4_2_Handler          = (void*) SERCOM4_2_Handler, /* 64 Serial Communication Inte
 296:Device_Startup/startup_same54p20a.c ****         .pfnSERCOM4_OTHER_Handler      = (void*) SERCOM4_OTHER_Handler, /* 65 Serial Communication 
 297:Device_Startup/startup_same54p20a.c ****         .pfnSERCOM5_0_Handler          = (void*) SERCOM5_0_Handler, /* 66 Serial Communication Inte
 298:Device_Startup/startup_same54p20a.c ****         .pfnSERCOM5_1_Handler          = (void*) SERCOM5_1_Handler, /* 67 Serial Communication Inte
 299:Device_Startup/startup_same54p20a.c ****         .pfnSERCOM5_2_Handler          = (void*) SERCOM5_2_Handler, /* 68 Serial Communication Inte
 300:Device_Startup/startup_same54p20a.c ****         .pfnSERCOM5_OTHER_Handler      = (void*) SERCOM5_OTHER_Handler, /* 69 Serial Communication 
 301:Device_Startup/startup_same54p20a.c ****         .pfnSERCOM6_0_Handler          = (void*) SERCOM6_0_Handler, /* 70 Serial Communication Inte
 302:Device_Startup/startup_same54p20a.c ****         .pfnSERCOM6_1_Handler          = (void*) SERCOM6_1_Handler, /* 71 Serial Communication Inte
 303:Device_Startup/startup_same54p20a.c ****         .pfnSERCOM6_2_Handler          = (void*) SERCOM6_2_Handler, /* 72 Serial Communication Inte
 304:Device_Startup/startup_same54p20a.c ****         .pfnSERCOM6_OTHER_Handler      = (void*) SERCOM6_OTHER_Handler, /* 73 Serial Communication 
 305:Device_Startup/startup_same54p20a.c ****         .pfnSERCOM7_0_Handler          = (void*) SERCOM7_0_Handler, /* 74 Serial Communication Inte
 306:Device_Startup/startup_same54p20a.c ****         .pfnSERCOM7_1_Handler          = (void*) SERCOM7_1_Handler, /* 75 Serial Communication Inte
 307:Device_Startup/startup_same54p20a.c ****         .pfnSERCOM7_2_Handler          = (void*) SERCOM7_2_Handler, /* 76 Serial Communication Inte
 308:Device_Startup/startup_same54p20a.c ****         .pfnSERCOM7_OTHER_Handler      = (void*) SERCOM7_OTHER_Handler, /* 77 Serial Communication 
 309:Device_Startup/startup_same54p20a.c ****         .pfnCAN0_Handler               = (void*) CAN0_Handler,   /* 78 Control Area Network */
 310:Device_Startup/startup_same54p20a.c ****         .pfnCAN1_Handler               = (void*) CAN1_Handler,   /* 79 Control Area Network */
 311:Device_Startup/startup_same54p20a.c ****         .pfnUSB_OTHER_Handler          = (void*) USB_OTHER_Handler, /* 80 Universal Serial Bus */
 312:Device_Startup/startup_same54p20a.c ****         .pfnUSB_SOF_HSOF_Handler       = (void*) USB_SOF_HSOF_Handler, /* 81 Universal Serial Bus *
 313:Device_Startup/startup_same54p20a.c ****         .pfnUSB_TRCPT0_Handler         = (void*) USB_TRCPT0_Handler, /* 82 Universal Serial Bus */
 314:Device_Startup/startup_same54p20a.c ****         .pfnUSB_TRCPT1_Handler         = (void*) USB_TRCPT1_Handler, /* 83 Universal Serial Bus */
 315:Device_Startup/startup_same54p20a.c ****         .pfnGMAC_Handler               = (void*) GMAC_Handler,   /* 84 Ethernet MAC */
 316:Device_Startup/startup_same54p20a.c ****         .pfnTCC0_OTHER_Handler         = (void*) TCC0_OTHER_Handler, /* 85 Timer Counter Control */
 317:Device_Startup/startup_same54p20a.c ****         .pfnTCC0_MC0_Handler           = (void*) TCC0_MC0_Handler, /* 86 Timer Counter Control */
 318:Device_Startup/startup_same54p20a.c ****         .pfnTCC0_MC1_Handler           = (void*) TCC0_MC1_Handler, /* 87 Timer Counter Control */
 319:Device_Startup/startup_same54p20a.c ****         .pfnTCC0_MC2_Handler           = (void*) TCC0_MC2_Handler, /* 88 Timer Counter Control */
 320:Device_Startup/startup_same54p20a.c ****         .pfnTCC0_MC3_Handler           = (void*) TCC0_MC3_Handler, /* 89 Timer Counter Control */
 321:Device_Startup/startup_same54p20a.c ****         .pfnTCC0_MC4_Handler           = (void*) TCC0_MC4_Handler, /* 90 Timer Counter Control */
 322:Device_Startup/startup_same54p20a.c ****         .pfnTCC0_MC5_Handler           = (void*) TCC0_MC5_Handler, /* 91 Timer Counter Control */
 323:Device_Startup/startup_same54p20a.c ****         .pfnTCC1_OTHER_Handler         = (void*) TCC1_OTHER_Handler, /* 92 Timer Counter Control */
 324:Device_Startup/startup_same54p20a.c ****         .pfnTCC1_MC0_Handler           = (void*) TCC1_MC0_Handler, /* 93 Timer Counter Control */
 325:Device_Startup/startup_same54p20a.c ****         .pfnTCC1_MC1_Handler           = (void*) TCC1_MC1_Handler, /* 94 Timer Counter Control */
 326:Device_Startup/startup_same54p20a.c ****         .pfnTCC1_MC2_Handler           = (void*) TCC1_MC2_Handler, /* 95 Timer Counter Control */
 327:Device_Startup/startup_same54p20a.c ****         .pfnTCC1_MC3_Handler           = (void*) TCC1_MC3_Handler, /* 96 Timer Counter Control */
 328:Device_Startup/startup_same54p20a.c ****         .pfnTCC2_OTHER_Handler         = (void*) TCC2_OTHER_Handler, /* 97 Timer Counter Control */
 329:Device_Startup/startup_same54p20a.c ****         .pfnTCC2_MC0_Handler           = (void*) TCC2_MC0_Handler, /* 98 Timer Counter Control */
 330:Device_Startup/startup_same54p20a.c ****         .pfnTCC2_MC1_Handler           = (void*) TCC2_MC1_Handler, /* 99 Timer Counter Control */
 331:Device_Startup/startup_same54p20a.c ****         .pfnTCC2_MC2_Handler           = (void*) TCC2_MC2_Handler, /* 100 Timer Counter Control */
ARM GAS  C:\Users\cy023\AppData\Local\Temp\ccyGZuft.s 			page 10


 332:Device_Startup/startup_same54p20a.c ****         .pfnTCC3_OTHER_Handler         = (void*) TCC3_OTHER_Handler, /* 101 Timer Counter Control *
 333:Device_Startup/startup_same54p20a.c ****         .pfnTCC3_MC0_Handler           = (void*) TCC3_MC0_Handler, /* 102 Timer Counter Control */
 334:Device_Startup/startup_same54p20a.c ****         .pfnTCC3_MC1_Handler           = (void*) TCC3_MC1_Handler, /* 103 Timer Counter Control */
 335:Device_Startup/startup_same54p20a.c ****         .pfnTCC4_OTHER_Handler         = (void*) TCC4_OTHER_Handler, /* 104 Timer Counter Control *
 336:Device_Startup/startup_same54p20a.c ****         .pfnTCC4_MC0_Handler           = (void*) TCC4_MC0_Handler, /* 105 Timer Counter Control */
 337:Device_Startup/startup_same54p20a.c ****         .pfnTCC4_MC1_Handler           = (void*) TCC4_MC1_Handler, /* 106 Timer Counter Control */
 338:Device_Startup/startup_same54p20a.c ****         .pfnTC0_Handler                = (void*) TC0_Handler,    /* 107 Basic Timer Counter */
 339:Device_Startup/startup_same54p20a.c ****         .pfnTC1_Handler                = (void*) TC1_Handler,    /* 108 Basic Timer Counter */
 340:Device_Startup/startup_same54p20a.c ****         .pfnTC2_Handler                = (void*) TC2_Handler,    /* 109 Basic Timer Counter */
 341:Device_Startup/startup_same54p20a.c ****         .pfnTC3_Handler                = (void*) TC3_Handler,    /* 110 Basic Timer Counter */
 342:Device_Startup/startup_same54p20a.c ****         .pfnTC4_Handler                = (void*) TC4_Handler,    /* 111 Basic Timer Counter */
 343:Device_Startup/startup_same54p20a.c ****         .pfnTC5_Handler                = (void*) TC5_Handler,    /* 112 Basic Timer Counter */
 344:Device_Startup/startup_same54p20a.c ****         .pfnTC6_Handler                = (void*) TC6_Handler,    /* 113 Basic Timer Counter */
 345:Device_Startup/startup_same54p20a.c ****         .pfnTC7_Handler                = (void*) TC7_Handler,    /* 114 Basic Timer Counter */
 346:Device_Startup/startup_same54p20a.c ****         .pfnPDEC_OTHER_Handler         = (void*) PDEC_OTHER_Handler, /* 115 Quadrature Decodeur */
 347:Device_Startup/startup_same54p20a.c ****         .pfnPDEC_MC0_Handler           = (void*) PDEC_MC0_Handler, /* 116 Quadrature Decodeur */
 348:Device_Startup/startup_same54p20a.c ****         .pfnPDEC_MC1_Handler           = (void*) PDEC_MC1_Handler, /* 117 Quadrature Decodeur */
 349:Device_Startup/startup_same54p20a.c ****         .pfnADC0_OTHER_Handler         = (void*) ADC0_OTHER_Handler, /* 118 Analog Digital Converte
 350:Device_Startup/startup_same54p20a.c ****         .pfnADC0_RESRDY_Handler        = (void*) ADC0_RESRDY_Handler, /* 119 Analog Digital Convert
 351:Device_Startup/startup_same54p20a.c ****         .pfnADC1_OTHER_Handler         = (void*) ADC1_OTHER_Handler, /* 120 Analog Digital Converte
 352:Device_Startup/startup_same54p20a.c ****         .pfnADC1_RESRDY_Handler        = (void*) ADC1_RESRDY_Handler, /* 121 Analog Digital Convert
 353:Device_Startup/startup_same54p20a.c ****         .pfnAC_Handler                 = (void*) AC_Handler,     /* 122 Analog Comparators */
 354:Device_Startup/startup_same54p20a.c ****         .pfnDAC_OTHER_Handler          = (void*) DAC_OTHER_Handler, /* 123 Digital-to-Analog Conver
 355:Device_Startup/startup_same54p20a.c ****         .pfnDAC_EMPTY_0_Handler        = (void*) DAC_EMPTY_0_Handler, /* 124 Digital-to-Analog Conv
 356:Device_Startup/startup_same54p20a.c ****         .pfnDAC_EMPTY_1_Handler        = (void*) DAC_EMPTY_1_Handler, /* 125 Digital-to-Analog Conv
 357:Device_Startup/startup_same54p20a.c ****         .pfnDAC_RESRDY_0_Handler       = (void*) DAC_RESRDY_0_Handler, /* 126 Digital-to-Analog Con
 358:Device_Startup/startup_same54p20a.c ****         .pfnDAC_RESRDY_1_Handler       = (void*) DAC_RESRDY_1_Handler, /* 127 Digital-to-Analog Con
 359:Device_Startup/startup_same54p20a.c ****         .pfnI2S_Handler                = (void*) I2S_Handler,    /* 128 Inter-IC Sound Interface */
 360:Device_Startup/startup_same54p20a.c ****         .pfnPCC_Handler                = (void*) PCC_Handler,    /* 129 Parallel Capture Controller
 361:Device_Startup/startup_same54p20a.c ****         .pfnAES_Handler                = (void*) AES_Handler,    /* 130 Advanced Encryption Standar
 362:Device_Startup/startup_same54p20a.c ****         .pfnTRNG_Handler               = (void*) TRNG_Handler,   /* 131 True Random Generator */
 363:Device_Startup/startup_same54p20a.c ****         .pfnICM_Handler                = (void*) ICM_Handler,    /* 132 Integrity Check Monitor */
 364:Device_Startup/startup_same54p20a.c ****         .pfnPUKCC_Handler              = (void*) PUKCC_Handler,  /* 133 PUblic-Key Cryptography Con
 365:Device_Startup/startup_same54p20a.c ****         .pfnQSPI_Handler               = (void*) QSPI_Handler,   /* 134 Quad SPI interface */
 366:Device_Startup/startup_same54p20a.c ****         .pfnSDHC0_Handler              = (void*) SDHC0_Handler,  /* 135 SD/MMC Host Controller */
 367:Device_Startup/startup_same54p20a.c ****         .pfnSDHC1_Handler              = (void*) SDHC1_Handler   /* 136 SD/MMC Host Controller */
 368:Device_Startup/startup_same54p20a.c **** };
 369:Device_Startup/startup_same54p20a.c **** 
 370:Device_Startup/startup_same54p20a.c **** /**
 371:Device_Startup/startup_same54p20a.c ****  * \brief This is the code that gets called on processor reset.
 372:Device_Startup/startup_same54p20a.c ****  * To initialize the device, and call the main() routine.
 373:Device_Startup/startup_same54p20a.c ****  */
 374:Device_Startup/startup_same54p20a.c **** void Reset_Handler(void)
 375:Device_Startup/startup_same54p20a.c **** {
 186              		.loc 1 375 1
 187              		.cfi_startproc
 188              		@ args = 0, pretend = 0, frame = 8
 189              		@ frame_needed = 1, uses_anonymous_args = 0
 190 0000 80B5     		push	{r7, lr}
 191              	.LCFI0:
 192              		.cfi_def_cfa_offset 8
 193              		.cfi_offset 7, -8
 194              		.cfi_offset 14, -4
 195 0002 82B0     		sub	sp, sp, #8
 196              	.LCFI1:
 197              		.cfi_def_cfa_offset 16
 198 0004 00AF     		add	r7, sp, #0
ARM GAS  C:\Users\cy023\AppData\Local\Temp\ccyGZuft.s 			page 11


 199              	.LCFI2:
 200              		.cfi_def_cfa_register 7
 376:Device_Startup/startup_same54p20a.c ****         uint32_t *pSrc, *pDest;
 377:Device_Startup/startup_same54p20a.c **** 
 378:Device_Startup/startup_same54p20a.c ****         /* Initialize the relocate segment */
 379:Device_Startup/startup_same54p20a.c ****         pSrc = &_etext;
 201              		.loc 1 379 14
 202 0006 1F4B     		ldr	r3, .L10
 203 0008 7B60     		str	r3, [r7, #4]
 380:Device_Startup/startup_same54p20a.c ****         pDest = &_srelocate;
 204              		.loc 1 380 15
 205 000a 1F4B     		ldr	r3, .L10+4
 206 000c 3B60     		str	r3, [r7]
 381:Device_Startup/startup_same54p20a.c **** 
 382:Device_Startup/startup_same54p20a.c ****         if (pSrc != pDest) {
 207              		.loc 1 382 12
 208 000e 7A68     		ldr	r2, [r7, #4]
 209 0010 3B68     		ldr	r3, [r7]
 210 0012 9A42     		cmp	r2, r3
 211 0014 0CD0     		beq	.L2
 383:Device_Startup/startup_same54p20a.c ****                 for (; pDest < &_erelocate;) {
 212              		.loc 1 383 17
 213 0016 07E0     		b	.L3
 214              	.L4:
 384:Device_Startup/startup_same54p20a.c ****                         *pDest++ = *pSrc++;
 215              		.loc 1 384 41
 216 0018 7A68     		ldr	r2, [r7, #4]
 217 001a 131D     		adds	r3, r2, #4
 218 001c 7B60     		str	r3, [r7, #4]
 219              		.loc 1 384 31
 220 001e 3B68     		ldr	r3, [r7]
 221 0020 191D     		adds	r1, r3, #4
 222 0022 3960     		str	r1, [r7]
 223              		.loc 1 384 36
 224 0024 1268     		ldr	r2, [r2]
 225              		.loc 1 384 34
 226 0026 1A60     		str	r2, [r3]
 227              	.L3:
 383:Device_Startup/startup_same54p20a.c ****                 for (; pDest < &_erelocate;) {
 228              		.loc 1 383 17
 229 0028 3B68     		ldr	r3, [r7]
 230 002a 184A     		ldr	r2, .L10+8
 231 002c 9342     		cmp	r3, r2
 232 002e F3D3     		bcc	.L4
 233              	.L2:
 385:Device_Startup/startup_same54p20a.c ****                 }
 386:Device_Startup/startup_same54p20a.c ****         }
 387:Device_Startup/startup_same54p20a.c **** 
 388:Device_Startup/startup_same54p20a.c ****         /* Clear the zero segment */
 389:Device_Startup/startup_same54p20a.c ****         for (pDest = &_szero; pDest < &_ezero;) {
 234              		.loc 1 389 20
 235 0030 174B     		ldr	r3, .L10+12
 236 0032 3B60     		str	r3, [r7]
 237              		.loc 1 389 9
 238 0034 04E0     		b	.L5
 239              	.L6:
 390:Device_Startup/startup_same54p20a.c ****                 *pDest++ = 0;
ARM GAS  C:\Users\cy023\AppData\Local\Temp\ccyGZuft.s 			page 12


 240              		.loc 1 390 23
 241 0036 3B68     		ldr	r3, [r7]
 242 0038 1A1D     		adds	r2, r3, #4
 243 003a 3A60     		str	r2, [r7]
 244              		.loc 1 390 26
 245 003c 0022     		movs	r2, #0
 246 003e 1A60     		str	r2, [r3]
 247              	.L5:
 389:Device_Startup/startup_same54p20a.c ****                 *pDest++ = 0;
 248              		.loc 1 389 9 discriminator 1
 249 0040 3B68     		ldr	r3, [r7]
 250 0042 144A     		ldr	r2, .L10+16
 251 0044 9342     		cmp	r3, r2
 252 0046 F6D3     		bcc	.L6
 391:Device_Startup/startup_same54p20a.c ****         }
 392:Device_Startup/startup_same54p20a.c **** 
 393:Device_Startup/startup_same54p20a.c ****         /* Set the vector table base address */
 394:Device_Startup/startup_same54p20a.c ****         pSrc = (uint32_t *) & _sfixed;
 253              		.loc 1 394 14
 254 0048 134B     		ldr	r3, .L10+20
 255 004a 7B60     		str	r3, [r7, #4]
 395:Device_Startup/startup_same54p20a.c ****         SCB->VTOR = ((uint32_t) pSrc & SCB_VTOR_TBLOFF_Msk);
 256              		.loc 1 395 22
 257 004c 7B68     		ldr	r3, [r7, #4]
 258              		.loc 1 395 12
 259 004e 134A     		ldr	r2, .L10+24
 260              		.loc 1 395 38
 261 0050 23F07F03 		bic	r3, r3, #127
 262              		.loc 1 395 19
 263 0054 9360     		str	r3, [r2, #8]
 396:Device_Startup/startup_same54p20a.c **** 
 397:Device_Startup/startup_same54p20a.c ****         /* Call the optional application-provided _on_reset() function. */
 398:Device_Startup/startup_same54p20a.c ****         if (_on_reset) {
 264              		.loc 1 398 12
 265 0056 124B     		ldr	r3, .L10+28
 266 0058 002B     		cmp	r3, #0
 267 005a 01D0     		beq	.L7
 399:Device_Startup/startup_same54p20a.c ****                 _on_reset();
 268              		.loc 1 399 17
 269 005c 104B     		ldr	r3, .L10+28
 270 005e 9847     		blx	r3
 271              	.LVL0:
 272              	.L7:
 400:Device_Startup/startup_same54p20a.c ****         }
 401:Device_Startup/startup_same54p20a.c **** 
 402:Device_Startup/startup_same54p20a.c ****         /* Initialize the C library */
 403:Device_Startup/startup_same54p20a.c ****         __libc_init_array();
 273              		.loc 1 403 9
 274 0060 FFF7FEFF 		bl	__libc_init_array
 404:Device_Startup/startup_same54p20a.c **** 
 405:Device_Startup/startup_same54p20a.c ****         /* Call the optional application-provided _on_bootstrap() function. */
 406:Device_Startup/startup_same54p20a.c ****         if (_on_bootstrap) {
 275              		.loc 1 406 12
 276 0064 0F4B     		ldr	r3, .L10+32
 277 0066 002B     		cmp	r3, #0
 278 0068 01D0     		beq	.L8
 407:Device_Startup/startup_same54p20a.c ****                 _on_bootstrap();
ARM GAS  C:\Users\cy023\AppData\Local\Temp\ccyGZuft.s 			page 13


 279              		.loc 1 407 17
 280 006a 0E4B     		ldr	r3, .L10+32
 281 006c 9847     		blx	r3
 282              	.LVL1:
 283              	.L8:
 408:Device_Startup/startup_same54p20a.c ****         }
 409:Device_Startup/startup_same54p20a.c **** 
 410:Device_Startup/startup_same54p20a.c ****         PORT_REGS->GROUP[0].PORT_PMUX[1] = PORT_PMUX_PMUXO_B; // PA3 config as VREFA
 284              		.loc 1 410 18
 285 006e 0E4B     		ldr	r3, .L10+36
 286              		.loc 1 410 42
 287 0070 1022     		movs	r2, #16
 288 0072 83F83120 		strb	r2, [r3, #49]
 411:Device_Startup/startup_same54p20a.c ****         PORT_REGS->GROUP[0].PORT_PINCFG[3] = PORT_PINCFG_PMUXEN(1);
 289              		.loc 1 411 18
 290 0076 0C4B     		ldr	r3, .L10+36
 291              		.loc 1 411 44
 292 0078 0122     		movs	r2, #1
 293 007a 83F84320 		strb	r2, [r3, #67]
 412:Device_Startup/startup_same54p20a.c **** 
 413:Device_Startup/startup_same54p20a.c ****         /* Branch to main function */
 414:Device_Startup/startup_same54p20a.c ****         main();
 294              		.loc 1 414 9
 295 007e FFF7FEFF 		bl	main
 296              	.L9:
 415:Device_Startup/startup_same54p20a.c **** 
 416:Device_Startup/startup_same54p20a.c ****         /* Infinite loop */
 417:Device_Startup/startup_same54p20a.c ****         while (1);
 297              		.loc 1 417 15 discriminator 1
 298 0082 FEE7     		b	.L9
 299              	.L11:
 300              		.align	2
 301              	.L10:
 302 0084 00000000 		.word	_etext
 303 0088 00000000 		.word	_srelocate
 304 008c 00000000 		.word	_erelocate
 305 0090 00000000 		.word	_szero
 306 0094 00000000 		.word	_ezero
 307 0098 00000000 		.word	_sfixed
 308 009c 00ED00E0 		.word	-536810240
 309 00a0 00000000 		.word	_on_reset
 310 00a4 00000000 		.word	_on_bootstrap
 311 00a8 00800041 		.word	1090551808
 312              		.cfi_endproc
 313              	.LFE130:
 315              		.section	.text.Dummy_Handler,"ax",%progbits
 316              		.align	1
 317              		.global	Dummy_Handler
 318              		.syntax unified
 319              		.thumb
 320              		.thumb_func
 321              		.fpu softvfp
 323              	Dummy_Handler:
 324              	.LFB131:
 418:Device_Startup/startup_same54p20a.c **** }
 419:Device_Startup/startup_same54p20a.c **** 
 420:Device_Startup/startup_same54p20a.c **** /**
ARM GAS  C:\Users\cy023\AppData\Local\Temp\ccyGZuft.s 			page 14


 421:Device_Startup/startup_same54p20a.c ****  * \brief Default interrupt handler for unused IRQs.
 422:Device_Startup/startup_same54p20a.c ****  */
 423:Device_Startup/startup_same54p20a.c **** void Dummy_Handler(void)
 424:Device_Startup/startup_same54p20a.c **** {
 325              		.loc 1 424 1
 326              		.cfi_startproc
 327              		@ args = 0, pretend = 0, frame = 0
 328              		@ frame_needed = 1, uses_anonymous_args = 0
 329              		@ link register save eliminated.
 330 0000 80B4     		push	{r7}
 331              	.LCFI3:
 332              		.cfi_def_cfa_offset 4
 333              		.cfi_offset 7, -4
 334 0002 00AF     		add	r7, sp, #0
 335              	.LCFI4:
 336              		.cfi_def_cfa_register 7
 337              	.L13:
 425:Device_Startup/startup_same54p20a.c ****         while (1) {
 338              		.loc 1 425 15 discriminator 1
 339 0004 FEE7     		b	.L13
 340              		.cfi_endproc
 341              	.LFE131:
 343              		.weak	SDHC1_Handler
 344              		.thumb_set SDHC1_Handler,Dummy_Handler
 345              		.weak	SDHC0_Handler
 346              		.thumb_set SDHC0_Handler,Dummy_Handler
 347              		.weak	QSPI_Handler
 348              		.thumb_set QSPI_Handler,Dummy_Handler
 349              		.weak	PUKCC_Handler
 350              		.thumb_set PUKCC_Handler,Dummy_Handler
 351              		.weak	ICM_Handler
 352              		.thumb_set ICM_Handler,Dummy_Handler
 353              		.weak	TRNG_Handler
 354              		.thumb_set TRNG_Handler,Dummy_Handler
 355              		.weak	AES_Handler
 356              		.thumb_set AES_Handler,Dummy_Handler
 357              		.weak	PCC_Handler
 358              		.thumb_set PCC_Handler,Dummy_Handler
 359              		.weak	I2S_Handler
 360              		.thumb_set I2S_Handler,Dummy_Handler
 361              		.weak	DAC_RESRDY_1_Handler
 362              		.thumb_set DAC_RESRDY_1_Handler,Dummy_Handler
 363              		.weak	DAC_RESRDY_0_Handler
 364              		.thumb_set DAC_RESRDY_0_Handler,Dummy_Handler
 365              		.weak	DAC_EMPTY_1_Handler
 366              		.thumb_set DAC_EMPTY_1_Handler,Dummy_Handler
 367              		.weak	DAC_EMPTY_0_Handler
 368              		.thumb_set DAC_EMPTY_0_Handler,Dummy_Handler
 369              		.weak	DAC_OTHER_Handler
 370              		.thumb_set DAC_OTHER_Handler,Dummy_Handler
 371              		.weak	AC_Handler
 372              		.thumb_set AC_Handler,Dummy_Handler
 373              		.weak	ADC1_RESRDY_Handler
 374              		.thumb_set ADC1_RESRDY_Handler,Dummy_Handler
 375              		.weak	ADC1_OTHER_Handler
 376              		.thumb_set ADC1_OTHER_Handler,Dummy_Handler
 377              		.weak	ADC0_RESRDY_Handler
ARM GAS  C:\Users\cy023\AppData\Local\Temp\ccyGZuft.s 			page 15


 378              		.thumb_set ADC0_RESRDY_Handler,Dummy_Handler
 379              		.weak	ADC0_OTHER_Handler
 380              		.thumb_set ADC0_OTHER_Handler,Dummy_Handler
 381              		.weak	PDEC_MC1_Handler
 382              		.thumb_set PDEC_MC1_Handler,Dummy_Handler
 383              		.weak	PDEC_MC0_Handler
 384              		.thumb_set PDEC_MC0_Handler,Dummy_Handler
 385              		.weak	PDEC_OTHER_Handler
 386              		.thumb_set PDEC_OTHER_Handler,Dummy_Handler
 387              		.weak	TC7_Handler
 388              		.thumb_set TC7_Handler,Dummy_Handler
 389              		.weak	TC6_Handler
 390              		.thumb_set TC6_Handler,Dummy_Handler
 391              		.weak	TC5_Handler
 392              		.thumb_set TC5_Handler,Dummy_Handler
 393              		.weak	TC4_Handler
 394              		.thumb_set TC4_Handler,Dummy_Handler
 395              		.weak	TC3_Handler
 396              		.thumb_set TC3_Handler,Dummy_Handler
 397              		.weak	TC2_Handler
 398              		.thumb_set TC2_Handler,Dummy_Handler
 399              		.weak	TC1_Handler
 400              		.thumb_set TC1_Handler,Dummy_Handler
 401              		.weak	TC0_Handler
 402              		.thumb_set TC0_Handler,Dummy_Handler
 403              		.weak	TCC4_MC1_Handler
 404              		.thumb_set TCC4_MC1_Handler,Dummy_Handler
 405              		.weak	TCC4_MC0_Handler
 406              		.thumb_set TCC4_MC0_Handler,Dummy_Handler
 407              		.weak	TCC4_OTHER_Handler
 408              		.thumb_set TCC4_OTHER_Handler,Dummy_Handler
 409              		.weak	TCC3_MC1_Handler
 410              		.thumb_set TCC3_MC1_Handler,Dummy_Handler
 411              		.weak	TCC3_MC0_Handler
 412              		.thumb_set TCC3_MC0_Handler,Dummy_Handler
 413              		.weak	TCC3_OTHER_Handler
 414              		.thumb_set TCC3_OTHER_Handler,Dummy_Handler
 415              		.weak	TCC2_MC2_Handler
 416              		.thumb_set TCC2_MC2_Handler,Dummy_Handler
 417              		.weak	TCC2_MC1_Handler
 418              		.thumb_set TCC2_MC1_Handler,Dummy_Handler
 419              		.weak	TCC2_MC0_Handler
 420              		.thumb_set TCC2_MC0_Handler,Dummy_Handler
 421              		.weak	TCC2_OTHER_Handler
 422              		.thumb_set TCC2_OTHER_Handler,Dummy_Handler
 423              		.weak	TCC1_MC3_Handler
 424              		.thumb_set TCC1_MC3_Handler,Dummy_Handler
 425              		.weak	TCC1_MC2_Handler
 426              		.thumb_set TCC1_MC2_Handler,Dummy_Handler
 427              		.weak	TCC1_MC1_Handler
 428              		.thumb_set TCC1_MC1_Handler,Dummy_Handler
 429              		.weak	TCC1_MC0_Handler
 430              		.thumb_set TCC1_MC0_Handler,Dummy_Handler
 431              		.weak	TCC1_OTHER_Handler
 432              		.thumb_set TCC1_OTHER_Handler,Dummy_Handler
 433              		.weak	TCC0_MC5_Handler
 434              		.thumb_set TCC0_MC5_Handler,Dummy_Handler
ARM GAS  C:\Users\cy023\AppData\Local\Temp\ccyGZuft.s 			page 16


 435              		.weak	TCC0_MC4_Handler
 436              		.thumb_set TCC0_MC4_Handler,Dummy_Handler
 437              		.weak	TCC0_MC3_Handler
 438              		.thumb_set TCC0_MC3_Handler,Dummy_Handler
 439              		.weak	TCC0_MC2_Handler
 440              		.thumb_set TCC0_MC2_Handler,Dummy_Handler
 441              		.weak	TCC0_MC1_Handler
 442              		.thumb_set TCC0_MC1_Handler,Dummy_Handler
 443              		.weak	TCC0_MC0_Handler
 444              		.thumb_set TCC0_MC0_Handler,Dummy_Handler
 445              		.weak	TCC0_OTHER_Handler
 446              		.thumb_set TCC0_OTHER_Handler,Dummy_Handler
 447              		.weak	GMAC_Handler
 448              		.thumb_set GMAC_Handler,Dummy_Handler
 449              		.weak	USB_TRCPT1_Handler
 450              		.thumb_set USB_TRCPT1_Handler,Dummy_Handler
 451              		.weak	USB_TRCPT0_Handler
 452              		.thumb_set USB_TRCPT0_Handler,Dummy_Handler
 453              		.weak	USB_SOF_HSOF_Handler
 454              		.thumb_set USB_SOF_HSOF_Handler,Dummy_Handler
 455              		.weak	USB_OTHER_Handler
 456              		.thumb_set USB_OTHER_Handler,Dummy_Handler
 457              		.weak	CAN1_Handler
 458              		.thumb_set CAN1_Handler,Dummy_Handler
 459              		.weak	CAN0_Handler
 460              		.thumb_set CAN0_Handler,Dummy_Handler
 461              		.weak	SERCOM7_OTHER_Handler
 462              		.thumb_set SERCOM7_OTHER_Handler,Dummy_Handler
 463              		.weak	SERCOM7_2_Handler
 464              		.thumb_set SERCOM7_2_Handler,Dummy_Handler
 465              		.weak	SERCOM7_1_Handler
 466              		.thumb_set SERCOM7_1_Handler,Dummy_Handler
 467              		.weak	SERCOM7_0_Handler
 468              		.thumb_set SERCOM7_0_Handler,Dummy_Handler
 469              		.weak	SERCOM6_OTHER_Handler
 470              		.thumb_set SERCOM6_OTHER_Handler,Dummy_Handler
 471              		.weak	SERCOM6_2_Handler
 472              		.thumb_set SERCOM6_2_Handler,Dummy_Handler
 473              		.weak	SERCOM6_1_Handler
 474              		.thumb_set SERCOM6_1_Handler,Dummy_Handler
 475              		.weak	SERCOM6_0_Handler
 476              		.thumb_set SERCOM6_0_Handler,Dummy_Handler
 477              		.weak	SERCOM5_OTHER_Handler
 478              		.thumb_set SERCOM5_OTHER_Handler,Dummy_Handler
 479              		.weak	SERCOM5_2_Handler
 480              		.thumb_set SERCOM5_2_Handler,Dummy_Handler
 481              		.weak	SERCOM5_1_Handler
 482              		.thumb_set SERCOM5_1_Handler,Dummy_Handler
 483              		.weak	SERCOM5_0_Handler
 484              		.thumb_set SERCOM5_0_Handler,Dummy_Handler
 485              		.weak	SERCOM4_OTHER_Handler
 486              		.thumb_set SERCOM4_OTHER_Handler,Dummy_Handler
 487              		.weak	SERCOM4_2_Handler
 488              		.thumb_set SERCOM4_2_Handler,Dummy_Handler
 489              		.weak	SERCOM4_1_Handler
 490              		.thumb_set SERCOM4_1_Handler,Dummy_Handler
 491              		.weak	SERCOM4_0_Handler
ARM GAS  C:\Users\cy023\AppData\Local\Temp\ccyGZuft.s 			page 17


 492              		.thumb_set SERCOM4_0_Handler,Dummy_Handler
 493              		.weak	SERCOM3_OTHER_Handler
 494              		.thumb_set SERCOM3_OTHER_Handler,Dummy_Handler
 495              		.weak	SERCOM3_2_Handler
 496              		.thumb_set SERCOM3_2_Handler,Dummy_Handler
 497              		.weak	SERCOM3_1_Handler
 498              		.thumb_set SERCOM3_1_Handler,Dummy_Handler
 499              		.weak	SERCOM3_0_Handler
 500              		.thumb_set SERCOM3_0_Handler,Dummy_Handler
 501              		.weak	SERCOM2_OTHER_Handler
 502              		.thumb_set SERCOM2_OTHER_Handler,Dummy_Handler
 503              		.weak	SERCOM2_2_Handler
 504              		.thumb_set SERCOM2_2_Handler,Dummy_Handler
 505              		.weak	SERCOM2_1_Handler
 506              		.thumb_set SERCOM2_1_Handler,Dummy_Handler
 507              		.weak	SERCOM2_0_Handler
 508              		.thumb_set SERCOM2_0_Handler,Dummy_Handler
 509              		.weak	SERCOM1_OTHER_Handler
 510              		.thumb_set SERCOM1_OTHER_Handler,Dummy_Handler
 511              		.weak	SERCOM1_2_Handler
 512              		.thumb_set SERCOM1_2_Handler,Dummy_Handler
 513              		.weak	SERCOM1_1_Handler
 514              		.thumb_set SERCOM1_1_Handler,Dummy_Handler
 515              		.weak	SERCOM1_0_Handler
 516              		.thumb_set SERCOM1_0_Handler,Dummy_Handler
 517              		.weak	SERCOM0_OTHER_Handler
 518              		.thumb_set SERCOM0_OTHER_Handler,Dummy_Handler
 519              		.weak	SERCOM0_2_Handler
 520              		.thumb_set SERCOM0_2_Handler,Dummy_Handler
 521              		.weak	SERCOM0_1_Handler
 522              		.thumb_set SERCOM0_1_Handler,Dummy_Handler
 523              		.weak	SERCOM0_0_Handler
 524              		.thumb_set SERCOM0_0_Handler,Dummy_Handler
 525              		.weak	RAMECC_Handler
 526              		.thumb_set RAMECC_Handler,Dummy_Handler
 527              		.weak	PAC_Handler
 528              		.thumb_set PAC_Handler,Dummy_Handler
 529              		.weak	EVSYS_OTHER_Handler
 530              		.thumb_set EVSYS_OTHER_Handler,Dummy_Handler
 531              		.weak	EVSYS_3_Handler
 532              		.thumb_set EVSYS_3_Handler,Dummy_Handler
 533              		.weak	EVSYS_2_Handler
 534              		.thumb_set EVSYS_2_Handler,Dummy_Handler
 535              		.weak	EVSYS_1_Handler
 536              		.thumb_set EVSYS_1_Handler,Dummy_Handler
 537              		.weak	EVSYS_0_Handler
 538              		.thumb_set EVSYS_0_Handler,Dummy_Handler
 539              		.weak	DMAC_OTHER_Handler
 540              		.thumb_set DMAC_OTHER_Handler,Dummy_Handler
 541              		.weak	DMAC_3_Handler
 542              		.thumb_set DMAC_3_Handler,Dummy_Handler
 543              		.weak	DMAC_2_Handler
 544              		.thumb_set DMAC_2_Handler,Dummy_Handler
 545              		.weak	DMAC_1_Handler
 546              		.thumb_set DMAC_1_Handler,Dummy_Handler
 547              		.weak	DMAC_0_Handler
 548              		.thumb_set DMAC_0_Handler,Dummy_Handler
ARM GAS  C:\Users\cy023\AppData\Local\Temp\ccyGZuft.s 			page 18


 549              		.weak	NVMCTRL_1_Handler
 550              		.thumb_set NVMCTRL_1_Handler,Dummy_Handler
 551              		.weak	NVMCTRL_0_Handler
 552              		.thumb_set NVMCTRL_0_Handler,Dummy_Handler
 553              		.weak	FREQM_Handler
 554              		.thumb_set FREQM_Handler,Dummy_Handler
 555              		.weak	EIC_EXTINT_15_Handler
 556              		.thumb_set EIC_EXTINT_15_Handler,Dummy_Handler
 557              		.weak	EIC_EXTINT_14_Handler
 558              		.thumb_set EIC_EXTINT_14_Handler,Dummy_Handler
 559              		.weak	EIC_EXTINT_13_Handler
 560              		.thumb_set EIC_EXTINT_13_Handler,Dummy_Handler
 561              		.weak	EIC_EXTINT_12_Handler
 562              		.thumb_set EIC_EXTINT_12_Handler,Dummy_Handler
 563              		.weak	EIC_EXTINT_11_Handler
 564              		.thumb_set EIC_EXTINT_11_Handler,Dummy_Handler
 565              		.weak	EIC_EXTINT_10_Handler
 566              		.thumb_set EIC_EXTINT_10_Handler,Dummy_Handler
 567              		.weak	EIC_EXTINT_9_Handler
 568              		.thumb_set EIC_EXTINT_9_Handler,Dummy_Handler
 569              		.weak	EIC_EXTINT_8_Handler
 570              		.thumb_set EIC_EXTINT_8_Handler,Dummy_Handler
 571              		.weak	EIC_EXTINT_7_Handler
 572              		.thumb_set EIC_EXTINT_7_Handler,Dummy_Handler
 573              		.weak	EIC_EXTINT_6_Handler
 574              		.thumb_set EIC_EXTINT_6_Handler,Dummy_Handler
 575              		.weak	EIC_EXTINT_5_Handler
 576              		.thumb_set EIC_EXTINT_5_Handler,Dummy_Handler
 577              		.weak	EIC_EXTINT_4_Handler
 578              		.thumb_set EIC_EXTINT_4_Handler,Dummy_Handler
 579              		.weak	EIC_EXTINT_3_Handler
 580              		.thumb_set EIC_EXTINT_3_Handler,Dummy_Handler
 581              		.weak	EIC_EXTINT_2_Handler
 582              		.thumb_set EIC_EXTINT_2_Handler,Dummy_Handler
 583              		.weak	EIC_EXTINT_1_Handler
 584              		.thumb_set EIC_EXTINT_1_Handler,Dummy_Handler
 585              		.weak	EIC_EXTINT_0_Handler
 586              		.thumb_set EIC_EXTINT_0_Handler,Dummy_Handler
 587              		.weak	RTC_Handler
 588              		.thumb_set RTC_Handler,Dummy_Handler
 589              		.weak	WDT_Handler
 590              		.thumb_set WDT_Handler,Dummy_Handler
 591              		.weak	SUPC_BODDET_Handler
 592              		.thumb_set SUPC_BODDET_Handler,Dummy_Handler
 593              		.weak	SUPC_OTHER_Handler
 594              		.thumb_set SUPC_OTHER_Handler,Dummy_Handler
 595              		.weak	OSC32KCTRL_Handler
 596              		.thumb_set OSC32KCTRL_Handler,Dummy_Handler
 597              		.weak	OSCCTRL_DPLL1_Handler
 598              		.thumb_set OSCCTRL_DPLL1_Handler,Dummy_Handler
 599              		.weak	OSCCTRL_DPLL0_Handler
 600              		.thumb_set OSCCTRL_DPLL0_Handler,Dummy_Handler
 601              		.weak	OSCCTRL_DFLL_Handler
 602              		.thumb_set OSCCTRL_DFLL_Handler,Dummy_Handler
 603              		.weak	OSCCTRL_XOSC1_Handler
 604              		.thumb_set OSCCTRL_XOSC1_Handler,Dummy_Handler
 605              		.weak	OSCCTRL_XOSC0_Handler
ARM GAS  C:\Users\cy023\AppData\Local\Temp\ccyGZuft.s 			page 19


 606              		.thumb_set OSCCTRL_XOSC0_Handler,Dummy_Handler
 607              		.weak	MCLK_Handler
 608              		.thumb_set MCLK_Handler,Dummy_Handler
 609              		.weak	PM_Handler
 610              		.thumb_set PM_Handler,Dummy_Handler
 611              		.weak	SysTick_Handler
 612              		.thumb_set SysTick_Handler,Dummy_Handler
 613              		.weak	PendSV_Handler
 614              		.thumb_set PendSV_Handler,Dummy_Handler
 615              		.weak	DebugMonitor_Handler
 616              		.thumb_set DebugMonitor_Handler,Dummy_Handler
 617              		.weak	SVCall_Handler
 618              		.thumb_set SVCall_Handler,Dummy_Handler
 619              		.weak	UsageFault_Handler
 620              		.thumb_set UsageFault_Handler,Dummy_Handler
 621              		.weak	BusFault_Handler
 622              		.thumb_set BusFault_Handler,Dummy_Handler
 623              		.weak	MemoryManagement_Handler
 624              		.thumb_set MemoryManagement_Handler,Dummy_Handler
 625              		.weak	HardFault_Handler
 626              		.thumb_set HardFault_Handler,Dummy_Handler
 627              		.weak	NonMaskableInt_Handler
 628              		.thumb_set NonMaskableInt_Handler,Dummy_Handler
 629              		.weak	_on_bootstrap
 630              		.weak	_on_reset
 631              		.text
 632              	.Letext0:
 633              		.file 2 "d:\\program files\\gnu arm embedded toolchain\\10 2020-q4-major\\arm-none-eabi\\include\\
 634              		.file 3 "d:\\program files\\gnu arm embedded toolchain\\10 2020-q4-major\\arm-none-eabi\\include\\
 635              		.file 4 "Drivers/SAME54_DFP/same54p20a.h"
 636              		.file 5 "Drivers/CMSIS/core_cm4.h"
 637              		.file 6 "Drivers/SAME54_DFP/component/port.h"
ARM GAS  C:\Users\cy023\AppData\Local\Temp\ccyGZuft.s 			page 20

