ARM GAS  C:\Users\cy023\AppData\Local\Temp\ccYTQz8E.s 			page 1


   1              		.cpu cortex-m4
   2              		.eabi_attribute 20, 1
   3              		.eabi_attribute 21, 1
   4              		.eabi_attribute 23, 3
   5              		.eabi_attribute 24, 1
   6              		.eabi_attribute 25, 1
   7              		.eabi_attribute 26, 1
   8              		.eabi_attribute 30, 6
   9              		.eabi_attribute 34, 1
  10              		.eabi_attribute 18, 4
  11              		.file	"system.c"
  12              		.text
  13              	.Ltext0:
  14              		.cfi_sections	.debug_frame
  15              		.section	.text.system_clock_init,"ax",%progbits
  16              		.align	1
  17              		.arch armv7e-m
  18              		.syntax unified
  19              		.thumb
  20              		.thumb_func
  21              		.fpu softvfp
  23              	system_clock_init:
  24              	.LFB133:
  25              		.file 1 "Drivers/HAL/system.c"
   1:Drivers/HAL/system.c **** /**
   2:Drivers/HAL/system.c ****  * @file system.c
   3:Drivers/HAL/system.c ****  * @author cy023
   4:Drivers/HAL/system.c ****  * @date 2022.08.16
   5:Drivers/HAL/system.c ****  * @brief
   6:Drivers/HAL/system.c ****  */
   7:Drivers/HAL/system.c **** #include <stdio.h>
   8:Drivers/HAL/system.c **** 
   9:Drivers/HAL/system.c **** #include "system.h"
  10:Drivers/HAL/system.c **** #include "systick.h"
  11:Drivers/HAL/system.c **** #include "same54p20a.h"
  12:Drivers/HAL/system.c **** 
  13:Drivers/HAL/system.c **** /*******************************************************************************
  14:Drivers/HAL/system.c ****  * Static Functions
  15:Drivers/HAL/system.c ****  ******************************************************************************/
  16:Drivers/HAL/system.c **** 
  17:Drivers/HAL/system.c **** static void system_clock_init(void)
  18:Drivers/HAL/system.c **** {
  26              		.loc 1 18 1
  27              		.cfi_startproc
  28              		@ args = 0, pretend = 0, frame = 0
  29              		@ frame_needed = 1, uses_anonymous_args = 0
  30              		@ link register save eliminated.
  31 0000 80B4     		push	{r7}
  32              	.LCFI0:
  33              		.cfi_def_cfa_offset 4
  34              		.cfi_offset 7, -4
  35 0002 00AF     		add	r7, sp, #0
  36              	.LCFI1:
  37              		.cfi_def_cfa_register 7
  19:Drivers/HAL/system.c ****     // XOSC1 pin multiplxer set
  20:Drivers/HAL/system.c ****     PORT_REGS->GROUP[1].PORT_PMUX[11] = PORT_PMUX_PMUXO_N | PORT_PMUX_PMUXE_N;
  38              		.loc 1 20 14
ARM GAS  C:\Users\cy023\AppData\Local\Temp\ccYTQz8E.s 			page 2


  39 0004 3A4B     		ldr	r3, .L4
  40              		.loc 1 20 39
  41 0006 DD22     		movs	r2, #221
  42 0008 83F8BB20 		strb	r2, [r3, #187]
  21:Drivers/HAL/system.c ****     PORT_REGS->GROUP[1].PORT_PINCFG[22] |= PORT_PINCFG_PMUXEN(1);
  43              		.loc 1 21 41
  44 000c 384B     		ldr	r3, .L4
  45 000e 93F8D630 		ldrb	r3, [r3, #214]
  46 0012 DBB2     		uxtb	r3, r3
  47 0014 364A     		ldr	r2, .L4
  48 0016 43F00103 		orr	r3, r3, #1
  49 001a DBB2     		uxtb	r3, r3
  50 001c 82F8D630 		strb	r3, [r2, #214]
  22:Drivers/HAL/system.c ****     PORT_REGS->GROUP[1].PORT_PINCFG[23] |= PORT_PINCFG_PMUXEN(1);
  51              		.loc 1 22 41
  52 0020 334B     		ldr	r3, .L4
  53 0022 93F8D730 		ldrb	r3, [r3, #215]
  54 0026 DBB2     		uxtb	r3, r3
  55 0028 314A     		ldr	r2, .L4
  56 002a 43F00103 		orr	r3, r3, #1
  57 002e DBB2     		uxtb	r3, r3
  58 0030 82F8D730 		strb	r3, [r2, #215]
  23:Drivers/HAL/system.c **** 
  24:Drivers/HAL/system.c ****     // XOSC1 set
  25:Drivers/HAL/system.c ****     OSCCTRL_REGS->OSCCTRL_XOSCCTRL[1] &= OSCCTRL_XOSCCTRL_ONDEMAND(0);  // oscillator always on
  59              		.loc 1 25 39
  60 0034 2F4B     		ldr	r3, .L4+4
  61 0036 9B69     		ldr	r3, [r3, #24]
  62 0038 2E4B     		ldr	r3, .L4+4
  63 003a 0022     		movs	r2, #0
  64 003c 9A61     		str	r2, [r3, #24]
  26:Drivers/HAL/system.c ****     OSCCTRL_REGS->OSCCTRL_XOSCCTRL[1] |= OSCCTRL_XOSCCTRL_IMULT(4);     // oscillator current multi
  65              		.loc 1 26 39
  66 003e 2D4B     		ldr	r3, .L4+4
  67 0040 9B69     		ldr	r3, [r3, #24]
  68 0042 2C4A     		ldr	r2, .L4+4
  69 0044 43F40053 		orr	r3, r3, #8192
  70 0048 9361     		str	r3, [r2, #24]
  27:Drivers/HAL/system.c ****     OSCCTRL_REGS->OSCCTRL_XOSCCTRL[1] |= OSCCTRL_XOSCCTRL_IPTAT(3);     // oscillator current refer
  71              		.loc 1 27 39
  72 004a 2A4B     		ldr	r3, .L4+4
  73 004c 9B69     		ldr	r3, [r3, #24]
  74 004e 294A     		ldr	r2, .L4+4
  75 0050 43F4C063 		orr	r3, r3, #1536
  76 0054 9361     		str	r3, [r2, #24]
  28:Drivers/HAL/system.c ****     OSCCTRL_REGS->OSCCTRL_XOSCCTRL[1] |= OSCCTRL_XOSCCTRL_XTALEN(1);    // internal oscillator circ
  77              		.loc 1 28 39
  78 0056 274B     		ldr	r3, .L4+4
  79 0058 9B69     		ldr	r3, [r3, #24]
  80 005a 264A     		ldr	r2, .L4+4
  81 005c 43F00403 		orr	r3, r3, #4
  82 0060 9361     		str	r3, [r2, #24]
  29:Drivers/HAL/system.c ****     OSCCTRL_REGS->OSCCTRL_XOSCCTRL[1] |= OSCCTRL_XOSCCTRL_ENABLE(1);    // oscillator enable
  83              		.loc 1 29 39
  84 0062 244B     		ldr	r3, .L4+4
  85 0064 9B69     		ldr	r3, [r3, #24]
  86 0066 234A     		ldr	r2, .L4+4
ARM GAS  C:\Users\cy023\AppData\Local\Temp\ccYTQz8E.s 			page 3


  87 0068 43F00203 		orr	r3, r3, #2
  88 006c 9361     		str	r3, [r2, #24]
  30:Drivers/HAL/system.c ****     while (!(OSCCTRL_REGS->OSCCTRL_STATUS & OSCCTRL_STATUS_XOSCRDY1_Msk)); // wait for XOSC1 ready
  89              		.loc 1 30 11
  90 006e 00BF     		nop
  91              	.L2:
  92              		.loc 1 30 26 discriminator 1
  93 0070 204B     		ldr	r3, .L4+4
  94 0072 1B69     		ldr	r3, [r3, #16]
  95              		.loc 1 30 43 discriminator 1
  96 0074 03F00203 		and	r3, r3, #2
  97              		.loc 1 30 11 discriminator 1
  98 0078 002B     		cmp	r3, #0
  99 007a F9D0     		beq	.L2
  31:Drivers/HAL/system.c **** 
  32:Drivers/HAL/system.c ****     // GCLK 0 set Internal oscillator 48MHz
  33:Drivers/HAL/system.c ****     // GCLK_REGS->GCLK_GENCTRL[0] |= GCLK_GENCTRL_DIV(2);
  34:Drivers/HAL/system.c ****     // GCLK_REGS->GCLK_GENCTRL[0] |= GCLK_GENCTRL_SRC(8);
  35:Drivers/HAL/system.c ****     // GCLK_REGS->GCLK_GENCTRL[0] |= GCLK_GENCTRL_IDC(1);
  36:Drivers/HAL/system.c ****     // GCLK_REGS->GCLK_GENCTRL[0] |= GCLK_GENCTRL_GENEN(1);
  37:Drivers/HAL/system.c ****     // while (GCLK_REGS->GCLK_SYNCBUSY & GCLK_SYNCBUSY_GENCTRL_GCLK0); // wait gclk 0 sync
  38:Drivers/HAL/system.c **** 
  39:Drivers/HAL/system.c ****     // GCLK 2 set External oscillator 12MHz
  40:Drivers/HAL/system.c ****     GCLK_REGS->GCLK_GENCTRL[2] |= GCLK_GENCTRL_DIV(1); // gclk 2 output = src clk / 1
 100              		.loc 1 40 32
 101 007c 1E4B     		ldr	r3, .L4+8
 102 007e 9B6A     		ldr	r3, [r3, #40]
 103 0080 1D4A     		ldr	r2, .L4+8
 104 0082 43F48033 		orr	r3, r3, #65536
 105 0086 9362     		str	r3, [r2, #40]
  41:Drivers/HAL/system.c ****     GCLK_REGS->GCLK_GENCTRL[2] |= GCLK_GENCTRL_SRC(1); // gclk 2 use xosc1 as source
 106              		.loc 1 41 32
 107 0088 1B4B     		ldr	r3, .L4+8
 108 008a 9B6A     		ldr	r3, [r3, #40]
 109 008c 1A4A     		ldr	r2, .L4+8
 110 008e 43F00103 		orr	r3, r3, #1
 111 0092 9362     		str	r3, [r2, #40]
  42:Drivers/HAL/system.c ****     GCLK_REGS->GCLK_GENCTRL[2] |= GCLK_GENCTRL_IDC(1);
 112              		.loc 1 42 32
 113 0094 184B     		ldr	r3, .L4+8
 114 0096 9B6A     		ldr	r3, [r3, #40]
 115 0098 174A     		ldr	r2, .L4+8
 116 009a 43F40073 		orr	r3, r3, #512
 117 009e 9362     		str	r3, [r2, #40]
  43:Drivers/HAL/system.c **** 	GCLK_REGS->GCLK_GENCTRL[2] |= GCLK_GENCTRL_GENEN(1);
 118              		.loc 1 43 29
 119 00a0 154B     		ldr	r3, .L4+8
 120 00a2 9B6A     		ldr	r3, [r3, #40]
 121 00a4 144A     		ldr	r2, .L4+8
 122 00a6 43F48073 		orr	r3, r3, #256
 123 00aa 9362     		str	r3, [r2, #40]
  44:Drivers/HAL/system.c ****     while (GCLK_REGS->GCLK_SYNCBUSY & GCLK_SYNCBUSY_GENCTRL_GCLK2); // wait gclk 2 sync
 124              		.loc 1 44 11
 125 00ac 00BF     		nop
 126              	.L3:
 127              		.loc 1 44 21 discriminator 1
 128 00ae 124B     		ldr	r3, .L4+8
ARM GAS  C:\Users\cy023\AppData\Local\Temp\ccYTQz8E.s 			page 4


 129 00b0 5B68     		ldr	r3, [r3, #4]
 130              		.loc 1 44 37 discriminator 1
 131 00b2 03F01003 		and	r3, r3, #16
 132              		.loc 1 44 11 discriminator 1
 133 00b6 002B     		cmp	r3, #0
 134 00b8 F9D1     		bne	.L3
  45:Drivers/HAL/system.c **** 
  46:Drivers/HAL/system.c ****     // Peripheral clock set
  47:Drivers/HAL/system.c ****     GCLK_REGS->GCLK_PCHCTRL[7]  |= GCLK_PCHCTRL_GEN_GCLK2;   // select gclk 2 as source
 135              		.loc 1 47 33
 136 00ba 0F4B     		ldr	r3, .L4+8
 137 00bc D3F89C30 		ldr	r3, [r3, #156]
 138 00c0 0D4A     		ldr	r2, .L4+8
 139 00c2 43F00203 		orr	r3, r3, #2
 140 00c6 C2F89C30 		str	r3, [r2, #156]
  48:Drivers/HAL/system.c ****     GCLK_REGS->GCLK_PCHCTRL[7]  |= GCLK_PCHCTRL_CHEN(1);     // open sercom 0 clock
 141              		.loc 1 48 33
 142 00ca 0B4B     		ldr	r3, .L4+8
 143 00cc D3F89C30 		ldr	r3, [r3, #156]
 144 00d0 094A     		ldr	r2, .L4+8
 145 00d2 43F04003 		orr	r3, r3, #64
 146 00d6 C2F89C30 		str	r3, [r2, #156]
  49:Drivers/HAL/system.c **** 
  50:Drivers/HAL/system.c ****     // MCLK set
  51:Drivers/HAL/system.c ****     MCLK_REGS->MCLK_APBAMASK |= MCLK_APBAMASK_SERCOM0(1);    // sercom 0 bus open
 147              		.loc 1 51 30
 148 00da 084B     		ldr	r3, .L4+12
 149 00dc 5B69     		ldr	r3, [r3, #20]
 150 00de 074A     		ldr	r2, .L4+12
 151 00e0 43F48053 		orr	r3, r3, #4096
 152 00e4 5361     		str	r3, [r2, #20]
  52:Drivers/HAL/system.c **** }
 153              		.loc 1 52 1
 154 00e6 00BF     		nop
 155 00e8 BD46     		mov	sp, r7
 156              	.LCFI2:
 157              		.cfi_def_cfa_register 13
 158              		@ sp needed
 159 00ea 80BC     		pop	{r7}
 160              	.LCFI3:
 161              		.cfi_restore 7
 162              		.cfi_def_cfa_offset 0
 163 00ec 7047     		bx	lr
 164              	.L5:
 165 00ee 00BF     		.align	2
 166              	.L4:
 167 00f0 00800041 		.word	1090551808
 168 00f4 00100040 		.word	1073745920
 169 00f8 001C0040 		.word	1073748992
 170 00fc 00080040 		.word	1073743872
 171              		.cfi_endproc
 172              	.LFE133:
 174              		.section	.text.system_clock_deinit,"ax",%progbits
 175              		.align	1
 176              		.syntax unified
 177              		.thumb
 178              		.thumb_func
ARM GAS  C:\Users\cy023\AppData\Local\Temp\ccYTQz8E.s 			page 5


 179              		.fpu softvfp
 181              	system_clock_deinit:
 182              	.LFB134:
  53:Drivers/HAL/system.c **** 
  54:Drivers/HAL/system.c **** static void system_clock_deinit(void)
  55:Drivers/HAL/system.c **** {
 183              		.loc 1 55 1
 184              		.cfi_startproc
 185              		@ args = 0, pretend = 0, frame = 0
 186              		@ frame_needed = 1, uses_anonymous_args = 0
 187              		@ link register save eliminated.
 188 0000 80B4     		push	{r7}
 189              	.LCFI4:
 190              		.cfi_def_cfa_offset 4
 191              		.cfi_offset 7, -4
 192 0002 00AF     		add	r7, sp, #0
 193              	.LCFI5:
 194              		.cfi_def_cfa_register 7
  56:Drivers/HAL/system.c ****     // MCLK reset
  57:Drivers/HAL/system.c ****     MCLK_REGS->MCLK_APBAMASK &= ~MCLK_APBAMASK_SERCOM0(1);    // sercom 0 bus close
 195              		.loc 1 57 30
 196 0004 274B     		ldr	r3, .L8
 197 0006 5B69     		ldr	r3, [r3, #20]
 198 0008 264A     		ldr	r2, .L8
 199 000a 23F48053 		bic	r3, r3, #4096
 200 000e 5361     		str	r3, [r2, #20]
  58:Drivers/HAL/system.c **** 
  59:Drivers/HAL/system.c ****     // GCLK reset
  60:Drivers/HAL/system.c ****     GCLK_REGS->GCLK_CTRLA = GCLK_CTRLA_SWRST(1);
 201              		.loc 1 60 14
 202 0010 254B     		ldr	r3, .L8+4
 203              		.loc 1 60 27
 204 0012 0122     		movs	r2, #1
 205 0014 1A70     		strb	r2, [r3]
  61:Drivers/HAL/system.c ****     while (GCLK_REGS->GCLK_SYNCBUSY & GCLK_SYNCBUSY_SWRST_Msk);
 206              		.loc 1 61 11
 207 0016 00BF     		nop
 208              	.L7:
 209              		.loc 1 61 21 discriminator 1
 210 0018 234B     		ldr	r3, .L8+4
 211 001a 5B68     		ldr	r3, [r3, #4]
 212              		.loc 1 61 37 discriminator 1
 213 001c 03F00103 		and	r3, r3, #1
 214              		.loc 1 61 11 discriminator 1
 215 0020 002B     		cmp	r3, #0
 216 0022 F9D1     		bne	.L7
  62:Drivers/HAL/system.c **** 
  63:Drivers/HAL/system.c ****     // XOSC1 reset
  64:Drivers/HAL/system.c ****     // The oscillator is running when a peripheral is requesting the oscillator to be used as a clo
  65:Drivers/HAL/system.c ****     // The oscillator is not running if no peripheral is requesting the clock source.
  66:Drivers/HAL/system.c ****     OSCCTRL_REGS->OSCCTRL_XOSCCTRL[1] |= OSCCTRL_XOSCCTRL_ONDEMAND(1);
 217              		.loc 1 66 39
 218 0024 214B     		ldr	r3, .L8+8
 219 0026 9B69     		ldr	r3, [r3, #24]
 220 0028 204A     		ldr	r2, .L8+8
 221 002a 43F08003 		orr	r3, r3, #128
 222 002e 9361     		str	r3, [r2, #24]
ARM GAS  C:\Users\cy023\AppData\Local\Temp\ccYTQz8E.s 			page 6


  67:Drivers/HAL/system.c ****     OSCCTRL_REGS->OSCCTRL_XOSCCTRL[1] &= ~OSCCTRL_XOSCCTRL_IMULT(4);
 223              		.loc 1 67 39
 224 0030 1E4B     		ldr	r3, .L8+8
 225 0032 9B69     		ldr	r3, [r3, #24]
 226 0034 1D4A     		ldr	r2, .L8+8
 227 0036 23F40053 		bic	r3, r3, #8192
 228 003a 9361     		str	r3, [r2, #24]
  68:Drivers/HAL/system.c ****     OSCCTRL_REGS->OSCCTRL_XOSCCTRL[1] &= ~OSCCTRL_XOSCCTRL_IPTAT(3);
 229              		.loc 1 68 39
 230 003c 1B4B     		ldr	r3, .L8+8
 231 003e 9B69     		ldr	r3, [r3, #24]
 232 0040 1A4A     		ldr	r2, .L8+8
 233 0042 23F4C063 		bic	r3, r3, #1536
 234 0046 9361     		str	r3, [r2, #24]
  69:Drivers/HAL/system.c ****     OSCCTRL_REGS->OSCCTRL_XOSCCTRL[1] &= ~OSCCTRL_XOSCCTRL_XTALEN(1);
 235              		.loc 1 69 39
 236 0048 184B     		ldr	r3, .L8+8
 237 004a 9B69     		ldr	r3, [r3, #24]
 238 004c 174A     		ldr	r2, .L8+8
 239 004e 23F00403 		bic	r3, r3, #4
 240 0052 9361     		str	r3, [r2, #24]
  70:Drivers/HAL/system.c ****     OSCCTRL_REGS->OSCCTRL_XOSCCTRL[1] &= ~OSCCTRL_XOSCCTRL_ENABLE(1);
 241              		.loc 1 70 39
 242 0054 154B     		ldr	r3, .L8+8
 243 0056 9B69     		ldr	r3, [r3, #24]
 244 0058 144A     		ldr	r2, .L8+8
 245 005a 23F00203 		bic	r3, r3, #2
 246 005e 9361     		str	r3, [r2, #24]
  71:Drivers/HAL/system.c **** 
  72:Drivers/HAL/system.c ****     // XOSC1 pin multiplxer reset
  73:Drivers/HAL/system.c ****     PORT_REGS->GROUP[1].PORT_PMUX[11] &= ~(PORT_PMUX_PMUXO_N | PORT_PMUX_PMUXE_N);
 247              		.loc 1 73 39
 248 0060 134B     		ldr	r3, .L8+12
 249 0062 93F8BB30 		ldrb	r3, [r3, #187]
 250 0066 DBB2     		uxtb	r3, r3
 251 0068 114A     		ldr	r2, .L8+12
 252 006a 03F02203 		and	r3, r3, #34
 253 006e DBB2     		uxtb	r3, r3
 254 0070 82F8BB30 		strb	r3, [r2, #187]
  74:Drivers/HAL/system.c ****     PORT_REGS->GROUP[1].PORT_PINCFG[22] &= ~PORT_PINCFG_PMUXEN(1);
 255              		.loc 1 74 41
 256 0074 0E4B     		ldr	r3, .L8+12
 257 0076 93F8D630 		ldrb	r3, [r3, #214]
 258 007a DBB2     		uxtb	r3, r3
 259 007c 0C4A     		ldr	r2, .L8+12
 260 007e 23F00103 		bic	r3, r3, #1
 261 0082 DBB2     		uxtb	r3, r3
 262 0084 82F8D630 		strb	r3, [r2, #214]
  75:Drivers/HAL/system.c ****     PORT_REGS->GROUP[1].PORT_PINCFG[23] &= ~PORT_PINCFG_PMUXEN(1);
 263              		.loc 1 75 41
 264 0088 094B     		ldr	r3, .L8+12
 265 008a 93F8D730 		ldrb	r3, [r3, #215]
 266 008e DBB2     		uxtb	r3, r3
 267 0090 074A     		ldr	r2, .L8+12
 268 0092 23F00103 		bic	r3, r3, #1
 269 0096 DBB2     		uxtb	r3, r3
 270 0098 82F8D730 		strb	r3, [r2, #215]
ARM GAS  C:\Users\cy023\AppData\Local\Temp\ccYTQz8E.s 			page 7


  76:Drivers/HAL/system.c **** }
 271              		.loc 1 76 1
 272 009c 00BF     		nop
 273 009e BD46     		mov	sp, r7
 274              	.LCFI6:
 275              		.cfi_def_cfa_register 13
 276              		@ sp needed
 277 00a0 80BC     		pop	{r7}
 278              	.LCFI7:
 279              		.cfi_restore 7
 280              		.cfi_def_cfa_offset 0
 281 00a2 7047     		bx	lr
 282              	.L9:
 283              		.align	2
 284              	.L8:
 285 00a4 00080040 		.word	1073743872
 286 00a8 001C0040 		.word	1073748992
 287 00ac 00100040 		.word	1073745920
 288 00b0 00800041 		.word	1090551808
 289              		.cfi_endproc
 290              	.LFE134:
 292              		.section	.text.system_power_init,"ax",%progbits
 293              		.align	1
 294              		.syntax unified
 295              		.thumb
 296              		.thumb_func
 297              		.fpu softvfp
 299              	system_power_init:
 300              	.LFB135:
  77:Drivers/HAL/system.c **** 
  78:Drivers/HAL/system.c **** static void system_power_init(void)
  79:Drivers/HAL/system.c **** {
 301              		.loc 1 79 1
 302              		.cfi_startproc
 303              		@ args = 0, pretend = 0, frame = 0
 304              		@ frame_needed = 1, uses_anonymous_args = 0
 305              		@ link register save eliminated.
 306 0000 80B4     		push	{r7}
 307              	.LCFI8:
 308              		.cfi_def_cfa_offset 4
 309              		.cfi_offset 7, -4
 310 0002 00AF     		add	r7, sp, #0
 311              	.LCFI9:
 312              		.cfi_def_cfa_register 7
  80:Drivers/HAL/system.c ****     // PCONP = PCONP_UART0 | PCONP_GPIO | PCONP_ENET;
  81:Drivers/HAL/system.c **** }
 313              		.loc 1 81 1
 314 0004 00BF     		nop
 315 0006 BD46     		mov	sp, r7
 316              	.LCFI10:
 317              		.cfi_def_cfa_register 13
 318              		@ sp needed
 319 0008 80BC     		pop	{r7}
 320              	.LCFI11:
 321              		.cfi_restore 7
 322              		.cfi_def_cfa_offset 0
 323 000a 7047     		bx	lr
ARM GAS  C:\Users\cy023\AppData\Local\Temp\ccYTQz8E.s 			page 8


 324              		.cfi_endproc
 325              	.LFE135:
 327              		.section	.text.system_power_deinit,"ax",%progbits
 328              		.align	1
 329              		.syntax unified
 330              		.thumb
 331              		.thumb_func
 332              		.fpu softvfp
 334              	system_power_deinit:
 335              	.LFB136:
  82:Drivers/HAL/system.c **** 
  83:Drivers/HAL/system.c **** static void system_power_deinit(void)
  84:Drivers/HAL/system.c **** {
 336              		.loc 1 84 1
 337              		.cfi_startproc
 338              		@ args = 0, pretend = 0, frame = 0
 339              		@ frame_needed = 1, uses_anonymous_args = 0
 340              		@ link register save eliminated.
 341 0000 80B4     		push	{r7}
 342              	.LCFI12:
 343              		.cfi_def_cfa_offset 4
 344              		.cfi_offset 7, -4
 345 0002 00AF     		add	r7, sp, #0
 346              	.LCFI13:
 347              		.cfi_def_cfa_register 7
  85:Drivers/HAL/system.c ****     // PCONP = 0;
  86:Drivers/HAL/system.c **** }
 348              		.loc 1 86 1
 349 0004 00BF     		nop
 350 0006 BD46     		mov	sp, r7
 351              	.LCFI14:
 352              		.cfi_def_cfa_register 13
 353              		@ sp needed
 354 0008 80BC     		pop	{r7}
 355              	.LCFI15:
 356              		.cfi_restore 7
 357              		.cfi_def_cfa_offset 0
 358 000a 7047     		bx	lr
 359              		.cfi_endproc
 360              	.LFE136:
 362              		.section	.text.system_uart0_init,"ax",%progbits
 363              		.align	1
 364              		.syntax unified
 365              		.thumb
 366              		.thumb_func
 367              		.fpu softvfp
 369              	system_uart0_init:
 370              	.LFB137:
  87:Drivers/HAL/system.c **** 
  88:Drivers/HAL/system.c **** static void system_uart0_init(void)
  89:Drivers/HAL/system.c **** {
 371              		.loc 1 89 1
 372              		.cfi_startproc
 373              		@ args = 0, pretend = 0, frame = 0
 374              		@ frame_needed = 1, uses_anonymous_args = 0
 375              		@ link register save eliminated.
 376 0000 80B4     		push	{r7}
ARM GAS  C:\Users\cy023\AppData\Local\Temp\ccYTQz8E.s 			page 9


 377              	.LCFI16:
 378              		.cfi_def_cfa_offset 4
 379              		.cfi_offset 7, -4
 380 0002 00AF     		add	r7, sp, #0
 381              	.LCFI17:
 382              		.cfi_def_cfa_register 7
  90:Drivers/HAL/system.c ****     // uart0 pin multiplexer set
  91:Drivers/HAL/system.c ****     PORT_REGS->GROUP[0].PORT_PMUX[2] |= PORT_PMUX_PMUXE_D; // set PA4 as function D (SERCOM0)
 383              		.loc 1 91 38
 384 0004 344B     		ldr	r3, .L16
 385 0006 93F83230 		ldrb	r3, [r3, #50]
 386 000a DBB2     		uxtb	r3, r3
 387 000c 324A     		ldr	r2, .L16
 388 000e 43F00303 		orr	r3, r3, #3
 389 0012 DBB2     		uxtb	r3, r3
 390 0014 82F83230 		strb	r3, [r2, #50]
  92:Drivers/HAL/system.c ****     PORT_REGS->GROUP[0].PORT_PINCFG[4] |= PORT_PINCFG_PMUXEN(1); // set PA4 PMUXEN
 391              		.loc 1 92 40
 392 0018 2F4B     		ldr	r3, .L16
 393 001a 93F84430 		ldrb	r3, [r3, #68]
 394 001e DBB2     		uxtb	r3, r3
 395 0020 2D4A     		ldr	r2, .L16
 396 0022 43F00103 		orr	r3, r3, #1
 397 0026 DBB2     		uxtb	r3, r3
 398 0028 82F84430 		strb	r3, [r2, #68]
  93:Drivers/HAL/system.c ****     PORT_REGS->GROUP[0].PORT_PMUX[3] |= PORT_PMUX_PMUXE_D; // set PA6 as function D (SERCOM0)
 399              		.loc 1 93 38
 400 002c 2A4B     		ldr	r3, .L16
 401 002e 93F83330 		ldrb	r3, [r3, #51]
 402 0032 DBB2     		uxtb	r3, r3
 403 0034 284A     		ldr	r2, .L16
 404 0036 43F00303 		orr	r3, r3, #3
 405 003a DBB2     		uxtb	r3, r3
 406 003c 82F83330 		strb	r3, [r2, #51]
  94:Drivers/HAL/system.c ****     PORT_REGS->GROUP[0].PORT_PINCFG[6] |= PORT_PINCFG_PMUXEN(1); // set PA6 PMUXEN
 407              		.loc 1 94 40
 408 0040 254B     		ldr	r3, .L16
 409 0042 93F84630 		ldrb	r3, [r3, #70]
 410 0046 DBB2     		uxtb	r3, r3
 411 0048 234A     		ldr	r2, .L16
 412 004a 43F00103 		orr	r3, r3, #1
 413 004e DBB2     		uxtb	r3, r3
 414 0050 82F84630 		strb	r3, [r2, #70]
  95:Drivers/HAL/system.c **** 
  96:Drivers/HAL/system.c ****     // uart0 init
  97:Drivers/HAL/system.c ****     SERCOM0_REGS->USART_INT.SERCOM_CTRLA |= SERCOM_USART_INT_CTRLA_MODE_USART_INT_CLK;
 415              		.loc 1 97 42
 416 0054 214B     		ldr	r3, .L16+4
 417 0056 1B68     		ldr	r3, [r3]
 418 0058 204A     		ldr	r2, .L16+4
 419 005a 43F00403 		orr	r3, r3, #4
 420 005e 1360     		str	r3, [r2]
  98:Drivers/HAL/system.c ****     SERCOM0_REGS->USART_INT.SERCOM_CTRLA |= SERCOM_USART_INT_CTRLA_RXPO_PAD2;
 421              		.loc 1 98 42
 422 0060 1E4B     		ldr	r3, .L16+4
 423 0062 1B68     		ldr	r3, [r3]
 424 0064 1D4A     		ldr	r2, .L16+4
ARM GAS  C:\Users\cy023\AppData\Local\Temp\ccYTQz8E.s 			page 10


 425 0066 43F40013 		orr	r3, r3, #2097152
 426 006a 1360     		str	r3, [r2]
  99:Drivers/HAL/system.c ****     SERCOM0_REGS->USART_INT.SERCOM_CTRLA |= SERCOM_USART_INT_CTRLA_DORD_LSB;
 427              		.loc 1 99 42
 428 006c 1B4B     		ldr	r3, .L16+4
 429 006e 1B68     		ldr	r3, [r3]
 430 0070 1A4A     		ldr	r2, .L16+4
 431 0072 43F08043 		orr	r3, r3, #1073741824
 432 0076 1360     		str	r3, [r2]
 100:Drivers/HAL/system.c ****     SERCOM0_REGS->USART_INT.SERCOM_BAUD = 62180;
 433              		.loc 1 100 17
 434 0078 184B     		ldr	r3, .L16+4
 435              		.loc 1 100 41
 436 007a 4FF2E422 		movw	r2, #62180
 437 007e 9A81     		strh	r2, [r3, #12]	@ movhi
 101:Drivers/HAL/system.c **** 
 102:Drivers/HAL/system.c ****     SERCOM0_REGS->USART_INT.SERCOM_CTRLB |= SERCOM_USART_INT_CTRLB_RXEN(1);
 438              		.loc 1 102 42
 439 0080 164B     		ldr	r3, .L16+4
 440 0082 5B68     		ldr	r3, [r3, #4]
 441 0084 154A     		ldr	r2, .L16+4
 442 0086 43F40033 		orr	r3, r3, #131072
 443 008a 5360     		str	r3, [r2, #4]
 103:Drivers/HAL/system.c ****     while (SERCOM0_REGS->USART_INT.SERCOM_SYNCBUSY & SERCOM_USART_INT_SYNCBUSY_CTRLB_Msk);
 444              		.loc 1 103 11
 445 008c 00BF     		nop
 446              	.L13:
 447              		.loc 1 103 24 discriminator 1
 448 008e 134B     		ldr	r3, .L16+4
 449              		.loc 1 103 35 discriminator 1
 450 0090 DB69     		ldr	r3, [r3, #28]
 451              		.loc 1 103 52 discriminator 1
 452 0092 03F00403 		and	r3, r3, #4
 453              		.loc 1 103 11 discriminator 1
 454 0096 002B     		cmp	r3, #0
 455 0098 F9D1     		bne	.L13
 104:Drivers/HAL/system.c ****     SERCOM0_REGS->USART_INT.SERCOM_CTRLB |= SERCOM_USART_INT_CTRLB_TXEN(1);
 456              		.loc 1 104 42
 457 009a 104B     		ldr	r3, .L16+4
 458 009c 5B68     		ldr	r3, [r3, #4]
 459 009e 0F4A     		ldr	r2, .L16+4
 460 00a0 43F48033 		orr	r3, r3, #65536
 461 00a4 5360     		str	r3, [r2, #4]
 105:Drivers/HAL/system.c ****     while (SERCOM0_REGS->USART_INT.SERCOM_SYNCBUSY & SERCOM_USART_INT_SYNCBUSY_CTRLB_Msk);
 462              		.loc 1 105 11
 463 00a6 00BF     		nop
 464              	.L14:
 465              		.loc 1 105 24 discriminator 1
 466 00a8 0C4B     		ldr	r3, .L16+4
 467              		.loc 1 105 35 discriminator 1
 468 00aa DB69     		ldr	r3, [r3, #28]
 469              		.loc 1 105 52 discriminator 1
 470 00ac 03F00403 		and	r3, r3, #4
 471              		.loc 1 105 11 discriminator 1
 472 00b0 002B     		cmp	r3, #0
 473 00b2 F9D1     		bne	.L14
 106:Drivers/HAL/system.c **** 
ARM GAS  C:\Users\cy023\AppData\Local\Temp\ccYTQz8E.s 			page 11


 107:Drivers/HAL/system.c ****     SERCOM0_REGS->USART_INT.SERCOM_CTRLA |= SERCOM_USART_INT_CTRLA_ENABLE(1);
 474              		.loc 1 107 42
 475 00b4 094B     		ldr	r3, .L16+4
 476 00b6 1B68     		ldr	r3, [r3]
 477 00b8 084A     		ldr	r2, .L16+4
 478 00ba 43F00203 		orr	r3, r3, #2
 479 00be 1360     		str	r3, [r2]
 108:Drivers/HAL/system.c ****     while (SERCOM0_REGS->USART_INT.SERCOM_SYNCBUSY & SERCOM_USART_INT_SYNCBUSY_ENABLE_Msk);
 480              		.loc 1 108 11
 481 00c0 00BF     		nop
 482              	.L15:
 483              		.loc 1 108 24 discriminator 1
 484 00c2 064B     		ldr	r3, .L16+4
 485              		.loc 1 108 35 discriminator 1
 486 00c4 DB69     		ldr	r3, [r3, #28]
 487              		.loc 1 108 52 discriminator 1
 488 00c6 03F00203 		and	r3, r3, #2
 489              		.loc 1 108 11 discriminator 1
 490 00ca 002B     		cmp	r3, #0
 491 00cc F9D1     		bne	.L15
 109:Drivers/HAL/system.c **** }
 492              		.loc 1 109 1
 493 00ce 00BF     		nop
 494 00d0 00BF     		nop
 495 00d2 BD46     		mov	sp, r7
 496              	.LCFI18:
 497              		.cfi_def_cfa_register 13
 498              		@ sp needed
 499 00d4 80BC     		pop	{r7}
 500              	.LCFI19:
 501              		.cfi_restore 7
 502              		.cfi_def_cfa_offset 0
 503 00d6 7047     		bx	lr
 504              	.L17:
 505              		.align	2
 506              	.L16:
 507 00d8 00800041 		.word	1090551808
 508 00dc 00300040 		.word	1073754112
 509              		.cfi_endproc
 510              	.LFE137:
 512              		.section	.text.system_uart0_deinit,"ax",%progbits
 513              		.align	1
 514              		.syntax unified
 515              		.thumb
 516              		.thumb_func
 517              		.fpu softvfp
 519              	system_uart0_deinit:
 520              	.LFB138:
 110:Drivers/HAL/system.c **** 
 111:Drivers/HAL/system.c **** static void system_uart0_deinit(void)
 112:Drivers/HAL/system.c **** {
 521              		.loc 1 112 1
 522              		.cfi_startproc
 523              		@ args = 0, pretend = 0, frame = 0
 524              		@ frame_needed = 1, uses_anonymous_args = 0
 525              		@ link register save eliminated.
 526 0000 80B4     		push	{r7}
ARM GAS  C:\Users\cy023\AppData\Local\Temp\ccYTQz8E.s 			page 12


 527              	.LCFI20:
 528              		.cfi_def_cfa_offset 4
 529              		.cfi_offset 7, -4
 530 0002 00AF     		add	r7, sp, #0
 531              	.LCFI21:
 532              		.cfi_def_cfa_register 7
 113:Drivers/HAL/system.c ****     // uart reset
 114:Drivers/HAL/system.c ****     SERCOM0_REGS->USART_INT.SERCOM_CTRLA &= ~SERCOM_USART_INT_CTRLA_ENABLE(1);
 533              		.loc 1 114 42
 534 0004 224B     		ldr	r3, .L21
 535 0006 1B68     		ldr	r3, [r3]
 536 0008 214A     		ldr	r2, .L21
 537 000a 23F00203 		bic	r3, r3, #2
 538 000e 1360     		str	r3, [r2]
 115:Drivers/HAL/system.c ****     while (SERCOM0_REGS->USART_INT.SERCOM_SYNCBUSY & \
 539              		.loc 1 115 11
 540 0010 00BF     		nop
 541              	.L19:
 542              		.loc 1 115 24 discriminator 1
 543 0012 1F4B     		ldr	r3, .L21
 544              		.loc 1 115 35 discriminator 1
 545 0014 DB69     		ldr	r3, [r3, #28]
 546              		.loc 1 115 52 discriminator 1
 547 0016 03F00303 		and	r3, r3, #3
 548              		.loc 1 115 11 discriminator 1
 549 001a 002B     		cmp	r3, #0
 550 001c F9D1     		bne	.L19
 116:Drivers/HAL/system.c ****             (SERCOM_USART_INT_SYNCBUSY_SWRST_Msk | SERCOM_USART_INT_SYNCBUSY_ENABLE_Msk));
 117:Drivers/HAL/system.c **** 
 118:Drivers/HAL/system.c ****     SERCOM0_REGS->USART_INT.SERCOM_CTRLA |= SERCOM_USART_INT_CTRLA_SWRST(1);
 551              		.loc 1 118 42
 552 001e 1C4B     		ldr	r3, .L21
 553 0020 1B68     		ldr	r3, [r3]
 554 0022 1B4A     		ldr	r2, .L21
 555 0024 43F00103 		orr	r3, r3, #1
 556 0028 1360     		str	r3, [r2]
 119:Drivers/HAL/system.c ****     while (SERCOM0_REGS->USART_INT.SERCOM_SYNCBUSY & SERCOM_USART_INT_SYNCBUSY_SWRST_Msk);
 557              		.loc 1 119 11
 558 002a 00BF     		nop
 559              	.L20:
 560              		.loc 1 119 24 discriminator 1
 561 002c 184B     		ldr	r3, .L21
 562              		.loc 1 119 35 discriminator 1
 563 002e DB69     		ldr	r3, [r3, #28]
 564              		.loc 1 119 52 discriminator 1
 565 0030 03F00103 		and	r3, r3, #1
 566              		.loc 1 119 11 discriminator 1
 567 0034 002B     		cmp	r3, #0
 568 0036 F9D1     		bne	.L20
 120:Drivers/HAL/system.c **** 
 121:Drivers/HAL/system.c ****     // uart0 pin reset
 122:Drivers/HAL/system.c ****     PORT_REGS->GROUP[0].PORT_PMUX[2] &= ~PORT_PMUX_PMUXE_D; // set PA4 as function D (SERCOM0)
 569              		.loc 1 122 38
 570 0038 164B     		ldr	r3, .L21+4
 571 003a 93F83230 		ldrb	r3, [r3, #50]
 572 003e DBB2     		uxtb	r3, r3
 573 0040 144A     		ldr	r2, .L21+4
ARM GAS  C:\Users\cy023\AppData\Local\Temp\ccYTQz8E.s 			page 13


 574 0042 23F00303 		bic	r3, r3, #3
 575 0046 DBB2     		uxtb	r3, r3
 576 0048 82F83230 		strb	r3, [r2, #50]
 123:Drivers/HAL/system.c ****     PORT_REGS->GROUP[0].PORT_PINCFG[4] &= ~PORT_PINCFG_PMUXEN(1); // set PA4 PMUXEN
 577              		.loc 1 123 40
 578 004c 114B     		ldr	r3, .L21+4
 579 004e 93F84430 		ldrb	r3, [r3, #68]
 580 0052 DBB2     		uxtb	r3, r3
 581 0054 0F4A     		ldr	r2, .L21+4
 582 0056 23F00103 		bic	r3, r3, #1
 583 005a DBB2     		uxtb	r3, r3
 584 005c 82F84430 		strb	r3, [r2, #68]
 124:Drivers/HAL/system.c ****     PORT_REGS->GROUP[0].PORT_PMUX[3] &= ~PORT_PMUX_PMUXE_D; // set PA6 as function D (SERCOM0)
 585              		.loc 1 124 38
 586 0060 0C4B     		ldr	r3, .L21+4
 587 0062 93F83330 		ldrb	r3, [r3, #51]
 588 0066 DBB2     		uxtb	r3, r3
 589 0068 0A4A     		ldr	r2, .L21+4
 590 006a 23F00303 		bic	r3, r3, #3
 591 006e DBB2     		uxtb	r3, r3
 592 0070 82F83330 		strb	r3, [r2, #51]
 125:Drivers/HAL/system.c ****     PORT_REGS->GROUP[0].PORT_PINCFG[6] &= ~PORT_PINCFG_PMUXEN(1); // set PA6 PMUXEN
 593              		.loc 1 125 40
 594 0074 074B     		ldr	r3, .L21+4
 595 0076 93F84630 		ldrb	r3, [r3, #70]
 596 007a DBB2     		uxtb	r3, r3
 597 007c 054A     		ldr	r2, .L21+4
 598 007e 23F00103 		bic	r3, r3, #1
 599 0082 DBB2     		uxtb	r3, r3
 600 0084 82F84630 		strb	r3, [r2, #70]
 126:Drivers/HAL/system.c **** }
 601              		.loc 1 126 1
 602 0088 00BF     		nop
 603 008a BD46     		mov	sp, r7
 604              	.LCFI22:
 605              		.cfi_def_cfa_register 13
 606              		@ sp needed
 607 008c 80BC     		pop	{r7}
 608              	.LCFI23:
 609              		.cfi_restore 7
 610              		.cfi_def_cfa_offset 0
 611 008e 7047     		bx	lr
 612              	.L22:
 613              		.align	2
 614              	.L21:
 615 0090 00300040 		.word	1073754112
 616 0094 00800041 		.word	1090551808
 617              		.cfi_endproc
 618              	.LFE138:
 620              		.section	.text.system_init,"ax",%progbits
 621              		.align	1
 622              		.global	system_init
 623              		.syntax unified
 624              		.thumb
 625              		.thumb_func
 626              		.fpu softvfp
 628              	system_init:
ARM GAS  C:\Users\cy023\AppData\Local\Temp\ccYTQz8E.s 			page 14


 629              	.LFB139:
 127:Drivers/HAL/system.c **** 
 128:Drivers/HAL/system.c **** /*******************************************************************************
 129:Drivers/HAL/system.c ****  * Public Functions
 130:Drivers/HAL/system.c ****  ******************************************************************************/
 131:Drivers/HAL/system.c **** 
 132:Drivers/HAL/system.c **** void system_init(void)
 133:Drivers/HAL/system.c **** {
 630              		.loc 1 133 1
 631              		.cfi_startproc
 632              		@ args = 0, pretend = 0, frame = 0
 633              		@ frame_needed = 1, uses_anonymous_args = 0
 634 0000 80B5     		push	{r7, lr}
 635              	.LCFI24:
 636              		.cfi_def_cfa_offset 8
 637              		.cfi_offset 7, -8
 638              		.cfi_offset 14, -4
 639 0002 00AF     		add	r7, sp, #0
 640              	.LCFI25:
 641              		.cfi_def_cfa_register 7
 134:Drivers/HAL/system.c ****     system_clock_init();
 642              		.loc 1 134 5
 643 0004 FFF7FEFF 		bl	system_clock_init
 135:Drivers/HAL/system.c ****     system_power_init();
 644              		.loc 1 135 5
 645 0008 FFF7FEFF 		bl	system_power_init
 136:Drivers/HAL/system.c ****     system_uart0_init();
 646              		.loc 1 136 5
 647 000c FFF7FEFF 		bl	system_uart0_init
 137:Drivers/HAL/system.c ****     systick_enable();
 648              		.loc 1 137 5
 649 0010 FFF7FEFF 		bl	systick_enable
 138:Drivers/HAL/system.c **** }
 650              		.loc 1 138 1
 651 0014 00BF     		nop
 652 0016 80BD     		pop	{r7, pc}
 653              		.cfi_endproc
 654              	.LFE139:
 656              		.section	.text.system_deinit,"ax",%progbits
 657              		.align	1
 658              		.global	system_deinit
 659              		.syntax unified
 660              		.thumb
 661              		.thumb_func
 662              		.fpu softvfp
 664              	system_deinit:
 665              	.LFB140:
 139:Drivers/HAL/system.c **** 
 140:Drivers/HAL/system.c **** void system_deinit(void)
 141:Drivers/HAL/system.c **** {
 666              		.loc 1 141 1
 667              		.cfi_startproc
 668              		@ args = 0, pretend = 0, frame = 0
 669              		@ frame_needed = 1, uses_anonymous_args = 0
 670 0000 80B5     		push	{r7, lr}
 671              	.LCFI26:
 672              		.cfi_def_cfa_offset 8
ARM GAS  C:\Users\cy023\AppData\Local\Temp\ccYTQz8E.s 			page 15


 673              		.cfi_offset 7, -8
 674              		.cfi_offset 14, -4
 675 0002 00AF     		add	r7, sp, #0
 676              	.LCFI27:
 677              		.cfi_def_cfa_register 7
 142:Drivers/HAL/system.c ****     system_uart0_deinit();
 678              		.loc 1 142 5
 679 0004 FFF7FEFF 		bl	system_uart0_deinit
 143:Drivers/HAL/system.c ****     system_power_deinit();
 680              		.loc 1 143 5
 681 0008 FFF7FEFF 		bl	system_power_deinit
 144:Drivers/HAL/system.c ****     system_clock_deinit();
 682              		.loc 1 144 5
 683 000c FFF7FEFF 		bl	system_clock_deinit
 145:Drivers/HAL/system.c **** }
 684              		.loc 1 145 1
 685 0010 00BF     		nop
 686 0012 80BD     		pop	{r7, pc}
 687              		.cfi_endproc
 688              	.LFE140:
 690              		.text
 691              	.Letext0:
 692              		.file 2 "d:\\program files\\gnu arm embedded toolchain\\10 2020-q4-major\\arm-none-eabi\\include\\
 693              		.file 3 "d:\\program files\\gnu arm embedded toolchain\\10 2020-q4-major\\arm-none-eabi\\include\\
 694              		.file 4 "Drivers/SAME54_DFP/component/gclk.h"
 695              		.file 5 "Drivers/SAME54_DFP/component/mclk.h"
 696              		.file 6 "Drivers/SAME54_DFP/component/oscctrl.h"
 697              		.file 7 "Drivers/SAME54_DFP/component/port.h"
 698              		.file 8 "Drivers/SAME54_DFP/component/sercom.h"
ARM GAS  C:\Users\cy023\AppData\Local\Temp\ccYTQz8E.s 			page 16

