ARM GAS  C:\Users\cy023\AppData\Local\Temp\ccYbiE41.s 			page 1


   1              		.cpu cortex-m4
   2              		.eabi_attribute 20, 1
   3              		.eabi_attribute 21, 1
   4              		.eabi_attribute 23, 3
   5              		.eabi_attribute 24, 1
   6              		.eabi_attribute 25, 1
   7              		.eabi_attribute 26, 1
   8              		.eabi_attribute 30, 6
   9              		.eabi_attribute 34, 1
  10              		.eabi_attribute 18, 4
  11              		.file	"test_01_sysnow.c"
  12              		.text
  13              	.Ltext0:
  14              		.cfi_sections	.debug_frame
  15              		.section	.rodata
  16              		.align	2
  17              	.LC0:
  18 0000 53797374 		.ascii	"System Boot.\000"
  18      656D2042 
  18      6F6F742E 
  18      00
  19 000d 000000   		.align	2
  20              	.LC1:
  21 0010 5B746573 		.ascii	"[test01]: sysnow ...\000"
  21      7430315D 
  21      3A207379 
  21      736E6F77 
  21      202E2E2E 
  22 0025 000000   		.align	2
  23              	.LC2:
  24 0028 63757272 		.ascii	"current systick is %ld\012\000"
  24      656E7420 
  24      73797374 
  24      69636B20 
  24      69732025 
  25              		.section	.text.main,"ax",%progbits
  26              		.align	1
  27              		.global	main
  28              		.arch armv7e-m
  29              		.syntax unified
  30              		.thumb
  31              		.thumb_func
  32              		.fpu softvfp
  34              	main:
  35              	.LFB3:
  36              		.file 1 "UnitTest/test_01_sysnow.c"
   1:UnitTest/test_01_sysnow.c **** /**
   2:UnitTest/test_01_sysnow.c ****  * @file test_01_sysnow.c
   3:UnitTest/test_01_sysnow.c ****  * @author cy023
   4:UnitTest/test_01_sysnow.c ****  * @date 2022.08.18
   5:UnitTest/test_01_sysnow.c ****  * @brief 
   6:UnitTest/test_01_sysnow.c ****  * 
   7:UnitTest/test_01_sysnow.c ****  */
   8:UnitTest/test_01_sysnow.c **** 
   9:UnitTest/test_01_sysnow.c **** #include <stdio.h>
  10:UnitTest/test_01_sysnow.c **** 
  11:UnitTest/test_01_sysnow.c **** #include "system.h"
ARM GAS  C:\Users\cy023\AppData\Local\Temp\ccYbiE41.s 			page 2


  12:UnitTest/test_01_sysnow.c **** #include "systick.h"
  13:UnitTest/test_01_sysnow.c **** #include "delay.h"
  14:UnitTest/test_01_sysnow.c **** 
  15:UnitTest/test_01_sysnow.c **** int main()
  16:UnitTest/test_01_sysnow.c **** {
  37              		.loc 1 16 1
  38              		.cfi_startproc
  39              		@ args = 0, pretend = 0, frame = 8
  40              		@ frame_needed = 1, uses_anonymous_args = 0
  41 0000 80B5     		push	{r7, lr}
  42              	.LCFI0:
  43              		.cfi_def_cfa_offset 8
  44              		.cfi_offset 7, -8
  45              		.cfi_offset 14, -4
  46 0002 82B0     		sub	sp, sp, #8
  47              	.LCFI1:
  48              		.cfi_def_cfa_offset 16
  49 0004 00AF     		add	r7, sp, #0
  50              	.LCFI2:
  51              		.cfi_def_cfa_register 7
  17:UnitTest/test_01_sysnow.c ****     system_init();
  52              		.loc 1 17 5
  53 0006 FFF7FEFF 		bl	system_init
  18:UnitTest/test_01_sysnow.c ****     printf("System Boot.\n");
  54              		.loc 1 18 5
  55 000a 0A48     		ldr	r0, .L3
  56 000c FFF7FEFF 		bl	puts
  19:UnitTest/test_01_sysnow.c ****     printf("[test01]: sysnow ...\n");
  57              		.loc 1 19 5
  58 0010 0948     		ldr	r0, .L3+4
  59 0012 FFF7FEFF 		bl	puts
  20:UnitTest/test_01_sysnow.c **** 
  21:UnitTest/test_01_sysnow.c ****     uint32_t cur_time = 0;
  60              		.loc 1 21 14
  61 0016 0023     		movs	r3, #0
  62 0018 7B60     		str	r3, [r7, #4]
  63              	.L2:
  22:UnitTest/test_01_sysnow.c **** 
  23:UnitTest/test_01_sysnow.c ****     while (1) {
  24:UnitTest/test_01_sysnow.c ****         cur_time = sys_now();
  64              		.loc 1 24 20 discriminator 1
  65 001a FFF7FEFF 		bl	sys_now
  66 001e 7860     		str	r0, [r7, #4]
  25:UnitTest/test_01_sysnow.c ****         printf("current systick is %ld\n", cur_time);
  67              		.loc 1 25 9 discriminator 1
  68 0020 7968     		ldr	r1, [r7, #4]
  69 0022 0648     		ldr	r0, .L3+8
  70 0024 FFF7FEFF 		bl	printf
  26:UnitTest/test_01_sysnow.c ****         delay_ms(1000);
  71              		.loc 1 26 9 discriminator 1
  72 0028 4FF47A70 		mov	r0, #1000
  73 002c FFF7FEFF 		bl	delay_ms
  24:UnitTest/test_01_sysnow.c ****         printf("current systick is %ld\n", cur_time);
  74              		.loc 1 24 18 discriminator 1
  75 0030 F3E7     		b	.L2
  76              	.L4:
  77 0032 00BF     		.align	2
ARM GAS  C:\Users\cy023\AppData\Local\Temp\ccYbiE41.s 			page 3


  78              	.L3:
  79 0034 00000000 		.word	.LC0
  80 0038 10000000 		.word	.LC1
  81 003c 28000000 		.word	.LC2
  82              		.cfi_endproc
  83              	.LFE3:
  85              		.text
  86              	.Letext0:
  87              		.file 2 "d:\\program files\\gnu arm embedded toolchain\\10 2020-q4-major\\arm-none-eabi\\include\\
  88              		.file 3 "d:\\program files\\gnu arm embedded toolchain\\10 2020-q4-major\\arm-none-eabi\\include\\
ARM GAS  C:\Users\cy023\AppData\Local\Temp\ccYbiE41.s 			page 4

